(dp0
(cnumpy.core.multiarray
scalar
p1
(cnumpy
dtype
p2
(S'i8'
p3
I0
I1
tp4
Rp5
(I3
S'<'
p6
NNNI-1
I-1
I0
tp7
bS'm\x00\x00\x00\x00\x00\x00\x00'
p8
tp9
Rp10
V3_23
p11
tp12
((lp13
g10
aI127
a(lp14
I113
atp15
s(g1
(g5
S'\x97\x00\x00\x00\x00\x00\x00\x00'
p16
tp17
Rp18
V9_60
p19
tp20
((lp21
g18
aI112
aI100
ag1
(g5
S'o\x00\x00\x00\x00\x00\x00\x00'
p22
tp23
Rp24
a(lp25
I104
atp26
s(g1
(g5
S'\x85\x00\x00\x00\x00\x00\x00\x00'
p27
tp28
Rp29
V1_10
p30
tp31
((lp32
g29
aI106
aI189
a(lp33
I131
atp34
s(g1
(g5
S'v\x00\x00\x00\x00\x00\x00\x00'
p35
tp36
Rp37
V4_31
p38
tp39
((lp40
g37
aI112
aI105
ag1
(g5
S'\xa6\x00\x00\x00\x00\x00\x00\x00'
p41
tp42
Rp43
a(lp44
I117
atp45
s(g1
(g5
S'\x89\x00\x00\x00\x00\x00\x00\x00'
p46
tp47
Rp48
V9_57
p49
tp50
((lp51
g48
aI110
aI0
ag1
(g5
S'g\x00\x00\x00\x00\x00\x00\x00'
p52
tp53
Rp54
a(lp55
I96
atp56
s(g1
(g5
S'\x7f\x00\x00\x00\x00\x00\x00\x00'
p57
tp58
Rp59
V3_24
p60
tp61
((lp62
g59
aI109
aI115
a(lp63
I126
atp64
s(g1
(g5
S'\xaa\x00\x00\x00\x00\x00\x00\x00'
p65
tp66
Rp67
V0_7
p68
tp69
((lp70
g67
aI84
aI7
aI108
ag1
(g5
S'\xae\x00\x00\x00\x00\x00\x00\x00'
p71
tp72
Rp73
a(lp74
I143
atp75
s(g1
(g5
S'k\x00\x00\x00\x00\x00\x00\x00'
p76
tp77
Rp78
V5_39
p79
tp80
((lp81
g78
aI66
ag1
(g5
S'\x91\x00\x00\x00\x00\x00\x00\x00'
p82
tp83
Rp84
a(lp85
I153
atp86
s(I194
V6_42
p87
tp88
((lp89
I194
aI190
a(lp90
I154
atp91
s(I194
V3_22
p92
tp93
((lp94
I194
aI190
aI109
a(lp95
I95
atp96
s(I169
V0_0
p97
tp98
((lp99
I169
aI192
a(lp100
I94
atp101
s(I187
V5_36
p102
tp103
((lp104
I187
aI94
ag1
(g5
S'{\x00\x00\x00\x00\x00\x00\x00'
p105
tp106
Rp107
a(lp108
I103
atp109
s(g1
(g5
S'o\x00\x00\x00\x00\x00\x00\x00'
p110
tp111
Rp112
V9_63
p113
tp114
((lp115
g112
aI179
a(lp116
I115
atp117
s(g1
(g5
S'\xad\x00\x00\x00\x00\x00\x00\x00'
p118
tp119
Rp120
V9_56
p121
tp122
((lp123
g120
aI110
ag1
(g5
S'\x89\x00\x00\x00\x00\x00\x00\x00'
p124
tp125
Rp126
a(lp127
I87
atp128
s(g67
V0_3
p129
tp130
((lp131
g67
aI84
aI7
aI89
ag1
(g5
S'~\x00\x00\x00\x00\x00\x00\x00'
p132
tp133
Rp134
a(lp135
I140
atp136
s(g1
(g5
S'p\x00\x00\x00\x00\x00\x00\x00'
p137
tp138
Rp139
V4_28
p140
tp141
((lp142
g139
aI100
a(lp143
I100
atp144
s(g1
(g5
S'\x0f\x00\x00\x00\x00\x00\x00\x00'
p145
tp146
Rp147
V1_17
p148
tp149
((lp150
g147
aI27
a(lp151
I148
atp152
s(I172
V2_19
p153
tp154
((lp155
I172
aI90
a(lp156
I109
atp157
s(g120
V9_61
p158
tp159
((lp160
g120
aI110
ag1
(g5
S'\x8d\x00\x00\x00\x00\x00\x00\x00'
p161
tp162
Rp163
a(lp164
I90
atp165
s(g1
(g5
S'j\x00\x00\x00\x00\x00\x00\x00'
p166
tp167
Rp168
V2_20
p169
tp170
((lp171
g168
aI128
a(lp172
I119
atp173
s(g67
V0_8
p174
tp175
((lp176
g67
aI84
a(lp177
I139
atp178
s(I197
V9_55
p179
tp180
((lp181
I197
aI173
a(lp182
I81
atp183
s(I195
g153
tp184
((lp185
I195
aI175
aI106
a(lp186
I107
atp187
s(g78
V5_40
p188
tp189
((lp190
g78
aI139
a(lp191
I152
atp192
s(g1
(g5
S'\xbc\x00\x00\x00\x00\x00\x00\x00'
p193
tp194
Rp195
V6_49
p196
tp197
((lp198
g195
aI92
a(lp199
I158
atp200
s(g1
(g5
S'x\x00\x00\x00\x00\x00\x00\x00'
p201
tp202
Rp203
V6_48
p204
tp205
((lp206
g203
aI109
aI108
ag1
(g5
S'\x86\x00\x00\x00\x00\x00\x00\x00'
p207
tp208
Rp209
a(lp210
I161
atp211
s(g1
(g5
S'\x93\x00\x00\x00\x00\x00\x00\x00'
p212
tp213
Rp214
V7_51
p215
tp216
((lp217
g214
aI100
aI111
ag1
(g5
S'\x81\x00\x00\x00\x00\x00\x00\x00'
p218
tp219
Rp220
a(lp221
I157
atp222
s(g1
(g5
S'{\x00\x00\x00\x00\x00\x00\x00'
p223
tp224
Rp225
V5_37
p226
tp227
((lp228
g225
aI94
aI3
aI2
ag1
(g5
S'k\x00\x00\x00\x00\x00\x00\x00'
p229
tp230
Rp231
a(lp232
I129
atp233
s(g29
V1_15
p234
tp235
((lp236
g29
aI106
aI112
ag1
(g5
S'\x83\x00\x00\x00\x00\x00\x00\x00'
p237
tp238
Rp239
a(lp240
I135
atp241
s(g10
V3_25
p242
tp243
((lp244
g10
aI117
a(lp245
I112
atp246
s(g1
(g5
S'\xa8\x00\x00\x00\x00\x00\x00\x00'
p247
tp248
Rp249
V2_21
p250
tp251
((lp252
g249
aI107
ag1
(g5
S'8\x00\x00\x00\x00\x00\x00\x00'
p253
tp254
Rp255
a(lp256
I150
atp257
s(g112
V9_62
p258
tp259
((lp260
g112
aI161
a(lp261
I114
atp262
s(g1
(g5
S'\xa6\x00\x00\x00\x00\x00\x00\x00'
p263
tp264
Rp265
V4_32
p266
tp267
((lp268
g265
aI105
aI74
a(lp269
I144
atp270
s(g1
(g5
S'\xc0\x00\x00\x00\x00\x00\x00\x00'
p271
tp272
Rp273
V0_1
p274
tp275
((lp276
g273
aI170
a(lp277
I123
atp278
s(g1
(g5
S'i\x00\x00\x00\x00\x00\x00\x00'
p279
tp280
Rp281
V3_26
p282
tp283
((lp284
g281
aI99
ag1
(g5
S'\xa3\x00\x00\x00\x00\x00\x00\x00'
p285
tp286
Rp287
a(lp288
I111
atp289
s(g29
V1_18
p290
tp291
((lp292
g29
aI106
aI15
ag1
(g5
S'\x1f\x00\x00\x00\x00\x00\x00\x00'
p293
tp294
Rp295
a(lp296
I136
atp297
s(g249
g169
tp298
((lp299
g249
aI108
ag1
(g5
S'z\x00\x00\x00\x00\x00\x00\x00'
p300
tp301
Rp302
a(lp303
I149
atp304
s(I196
V1_9
p305
tp306
((lp307
I196
aI185
aI106
ag1
(g5
S'\x85\x00\x00\x00\x00\x00\x00\x00'
p308
tp309
Rp310
a(lp311
I93
atp312
s(g1
(g5
S'\xba\x00\x00\x00\x00\x00\x00\x00'
p313
tp314
Rp315
V4_33
p316
tp317
((lp318
g315
aI99
ag1
(g5
S'\xb0\x00\x00\x00\x00\x00\x00\x00'
p319
tp320
Rp321
a(lp322
I122
atp323
s(g1
(g5
S'K\x00\x00\x00\x00\x00\x00\x00'
p324
tp325
Rp326
V1_16
p327
tp328
((lp329
g326
aI1
a(lp330
I145
atp331
s(g29
V1_12
p332
tp333
((lp334
g29
aI106
aI75
a(lp335
I133
atp336
s(g1
(g5
S'Z\x00\x00\x00\x00\x00\x00\x00'
p337
tp338
Rp339
g250
tp340
((lp341
g339
aI2
aI87
ag1
(g5
S'\x9c\x00\x00\x00\x00\x00\x00\x00'
p342
tp343
Rp344
a(lp345
I138
atp346
s(I178
g153
tp347
((lp348
I178
aI107
ag1
(g5
S'\xa8\x00\x00\x00\x00\x00\x00\x00'
p349
tp350
Rp351
a(lp352
I121
atp353
s(g1
(g5
S'\xb9\x00\x00\x00\x00\x00\x00\x00'
p354
tp355
Rp356
g242
tp357
((lp358
g356
aI106
ag1
(g5
S'\xbf\x00\x00\x00\x00\x00\x00\x00'
p359
tp360
Rp361
a(lp362
I97
atp363
s(g59
g282
tp364
((lp365
g59
aI109
aI104
ag1
(g5
S'}\x00\x00\x00\x00\x00\x00\x00'
p366
tp367
Rp368
a(lp369
I127
atp370
s(I169
V4_27
p371
tp372
((lp373
I169
aI112
a(lp374
I85
atp375
s(g273
V0_4
p376
tp377
((lp378
g273
aI170
aI84
ag1
(g5
S'\xb4\x00\x00\x00\x00\x00\x00\x00'
p379
tp380
Rp381
a(lp382
I125
atp383
s(g1
(g5
S'\xbe\x00\x00\x00\x00\x00\x00\x00'
p384
tp385
Rp386
V6_43
p387
tp388
((lp389
g386
aI109
ag1
(g5
S'\xbc\x00\x00\x00\x00\x00\x00\x00'
p390
tp391
Rp392
a(lp393
I155
atp394
s(g1
(g5
S'n\x00\x00\x00\x00\x00\x00\x00'
p395
tp396
Rp397
V8_53
p398
tp399
((lp400
g397
aI160
a(lp401
I99
atp402
s(g195
V6_45
p403
tp404
((lp405
g195
aI109
aI108
ag1
(g5
S'\x8c\x00\x00\x00\x00\x00\x00\x00'
p406
tp407
Rp408
a(lp409
I159
atp410
s(g1
(g5
S'd\x00\x00\x00\x00\x00\x00\x00'
p411
tp412
Rp413
V4_30
p414
tp415
((lp416
g413
aI186
a(lp417
I106
atp418
s(g120
V9_58
p419
tp420
((lp421
g120
aI110
ag1
(g5
S'e\x00\x00\x00\x00\x00\x00\x00'
p422
tp423
Rp424
a(lp425
I88
atp426
s(g67
V0_5
p427
tp428
((lp429
g67
aI84
aI7
aI42
ag1
(g5
S'\xb8\x00\x00\x00\x00\x00\x00\x00'
p430
tp431
Rp432
a(lp433
I141
atp434
s(g29
V1_11
p435
tp436
((lp437
g29
aI106
aI175
a(lp438
I132
atp439
s(g386
V6_44
p440
tp441
((lp442
g386
aI109
ag1
(g5
S'x\x00\x00\x00\x00\x00\x00\x00'
p443
tp444
Rp445
a(lp446
I156
atp447
s(g225
V5_41
p448
tp449
((lp450
g225
aI94
aI102
ag1
(g5
S'y\x00\x00\x00\x00\x00\x00\x00'
p451
tp452
Rp453
a(lp454
I128
atp455
s(g29
V1_13
p456
tp457
((lp458
g29
aI106
aI15
a(lp459
I134
atp460
s(g273
V0_2
p461
tp462
((lp463
g273
aI77
ag1
(g5
S'\x9a\x00\x00\x00\x00\x00\x00\x00'
p464
tp465
Rp466
a(lp467
I124
atp468
s(g339
g169
tp469
((lp470
g339
aI2
a(lp471
I137
atp472
s(g1
(g5
S'\xa0\x00\x00\x00\x00\x00\x00\x00'
p473
tp474
Rp475
V8_54
p476
tp477
((lp478
g475
aI110
aI4
ag1
(g5
S'h\x00\x00\x00\x00\x00\x00\x00'
p479
tp480
Rp481
a(lp482
I108
atp483
s(g1
(g5
S'\xb0\x00\x00\x00\x00\x00\x00\x00'
p484
tp485
Rp486
V4_34
p487
tp488
((lp489
g486
aI99
ag1
(g5
S'\x06\x00\x00\x00\x00\x00\x00\x00'
p490
tp491
Rp492
a(lp493
I147
atp494
s(I199
V8_52
p495
tp496
((lp497
I199
aI197
aI173
aI110
a(lp498
I78
atp499
s(g120
V9_59
p500
tp501
((lp502
g120
aI110
aI112
ag1
(g5
S'\x97\x00\x00\x00\x00\x00\x00\x00'
p503
tp504
Rp505
a(lp506
I89
atp507
s(g67
V0_6
p508
tp509
((lp510
g67
aI84
aI107
ag1
(g5
S'H\x00\x00\x00\x00\x00\x00\x00'
p511
tp512
Rp513
a(lp514
I142
atp515
s(g281
g60
tp516
((lp517
g281
aI159
a(lp518
I110
atp519
s(g168
g250
tp520
((lp521
g168
aI109
ag1
(g5
S'l\x00\x00\x00\x00\x00\x00\x00'
p522
tp523
Rp524
a(lp525
I120
atp526
s(I196
g92
tp527
((lp528
I196
aI185
a(lp529
I83
atp530
s(g225
V5_38
p531
tp532
((lp533
g225
aI94
aI102
a(lp534
I130
atp535
s(g326
V1_14
p536
tp537
((lp538
g326
aI43
a(lp539
I146
atp540
s(g195
V6_47
p541
tp542
((lp543
g195
aI109
aI108
aI67
ag1
(g5
S'\x82\x00\x00\x00\x00\x00\x00\x00'
p544
tp545
Rp546
a(lp547
I160
atp548
s(g356
g11
tp549
((lp550
g356
aI112
ag1
(g5
S'i\x00\x00\x00\x00\x00\x00\x00'
p551
tp552
Rp553
a(lp554
I98
atp555
s(g37
V4_35
p556
tp557
((lp558
g37
aI112
aI116
a(lp559
I116
atp560
s(g203
V6_46
p561
tp562
((lp563
g203
aI109
aI104
ag1
(g5
S'\xb6\x00\x00\x00\x00\x00\x00\x00'
p564
tp565
Rp566
a(lp567
I162
atp568
s(I198
V7_50
p569
tp570
((lp571
I198
aI196
aI185
aI112
aI100
ag1
(g5
S'\x93\x00\x00\x00\x00\x00\x00\x00'
p572
tp573
Rp574
a(lp575
I151
atp576
s(g139
V4_29
p577
tp578
((lp579
g139
aI118
a(lp580
I101
atp581
s.