(dp0
I0
(lp1
sI1
(lp2
V1#1_16
p3
asI2
(lp4
V2#2_20
p5
asI3
(lp6
sI4
(lp7
sI5
(lp8
sI6
(lp9
V4#4_34
p10
asI7
(lp11
sI8
(lp12
sI9
(lp13
sI10
(lp14
sI11
(lp15
sI12
(lp16
sI13
(lp17
sI14
(lp18
sI15
(lp19
V1#1_13
p20
asI16
(lp21
sI17
(lp22
sI18
(lp23
sI19
(lp24
sI20
(lp25
sI21
(lp26
sI22
(lp27
sI23
(lp28
sI24
(lp29
sI25
(lp30
sI26
(lp31
sI27
(lp32
V1#1_17
p33
asI28
(lp34
sI29
(lp35
sI30
(lp36
sI31
(lp37
V1#1_18
p38
asI32
(lp39
sI33
(lp40
sI34
(lp41
sI35
(lp42
sI36
(lp43
sI37
(lp44
sI38
(lp45
sI39
(lp46
sI40
(lp47
sI41
(lp48
sI42
(lp49
sI43
(lp50
V1#1_14
p51
asI44
(lp52
sI45
(lp53
sI46
(lp54
sI47
(lp55
sI48
(lp56
sI49
(lp57
sI50
(lp58
sI51
(lp59
sI52
(lp60
sI53
(lp61
sI54
(lp62
sI55
(lp63
sI56
(lp64
V2#2_21
p65
asI57
(lp66
sI58
(lp67
sI59
(lp68
sI60
(lp69
sI61
(lp70
sI62
(lp71
sI63
(lp72
sI64
(lp73
sI65
(lp74
sI66
(lp75
sI67
(lp76
sI68
(lp77
sI69
(lp78
sI70
(lp79
sI71
(lp80
sI72
(lp81
V0#0_6
p82
asI73
(lp83
sI74
(lp84
V4#4_32
p85
asI75
(lp86
V1#1_12
p87
asI76
(lp88
sI77
(lp89
sI78
(lp90
sI79
(lp91
sI80
(lp92
sI81
(lp93
sI82
(lp94
sI83
(lp95
sI84
(lp96
V0#0_8
p97
asI85
(lp98
sI86
(lp99
sI87
(lp100
sI88
(lp101
sI89
(lp102
sI90
(lp103
V2#2_19
p104
asI91
(lp105
sI92
(lp106
V6#6_49
p107
asI93
(lp108
sI94
(lp109
sI95
(lp110
sI96
(lp111
sI97
(lp112
sI98
(lp113
sI99
(lp114
sI100
(lp115
V4#4_28
p116
asI101
(lp117
V9#9_58
p118
asI102
(lp119
V5#5_38
p120
asI103
(lp121
V9#9_57
p122
asI104
(lp123
V8#8_54
p124
asI105
(lp125
V3#3_23
p126
asI106
(lp127
V2#2_19
p128
asI107
(lp129
V5#5_37
p130
asI108
(lp131
V2#2_21
p132
asI109
(lp133
V3#3_22
p134
asI110
(lp135
V8#8_52
p136
asI111
(lp137
V9#9_60
p138
asI112
(lp139
V4#4_27
p140
asI113
(lp141
sI114
(lp142
sI115
(lp143
V3#3_24
p144
asI116
(lp145
V4#4_35
p146
asI117
(lp147
V3#3_25
p148
asI118
(lp149
V4#4_29
p150
asI119
(lp151
sI120
(lp152
V6#6_44
p153
asI121
(lp154
V5#5_41
p155
asI122
(lp156
V2#2_20
p157
asI123
(lp158
V5#5_36
p159
asI124
(lp160
sI125
(lp161
V3#3_26
p162
asI126
(lp163
V0#0_3
p164
asI127
(lp165
V3#3_23
p166
asI128
(lp167
V2#2_20
p168
asI129
(lp169
V7#7_51
p170
asI130
(lp171
V6#6_47
p172
asI131
(lp173
V1#1_15
p174
asI132
(lp175
sI133
(lp176
V1#1_9
p177
asI134
(lp178
V6#6_48
p179
asI135
(lp180
sI136
(lp181
sI137
(lp182
V9#9_56
p183
asI138
(lp184
sI139
(lp185
V5#5_40
p186
asI140
(lp187
V6#6_45
p188
asI141
(lp189
V9#9_61
p190
asI142
(lp191
sI143
(lp192
sI144
(lp193
sI145
(lp194
V5#5_39
p195
asI146
(lp196
sI147
(lp197
V7#7_50
p198
asI148
(lp199
sI149
(lp200
sI150
(lp201
sI151
(lp202
V9#9_59
p203
asI152
(lp204
sI153
(lp205
V1#1_18
p206
aV1#1_13
p207
aV1#1_12
p208
aV1#1_11
p209
aV1#1_10
p210
aV1#1_17
p211
aV1#1_16
p212
aV1#1_15
p213
aV1#1_14
p214
aV1#1_9
p215
aV0#0_8
p216
aV0#0_6
p217
aV0#0_7
p218
aV0#0_4
p219
aV0#0_5
p220
aV0#0_2
p221
aV0#0_3
p222
aV0#0_0
p223
aV0#0_1
p224
aV3#3_24
p225
aV3#3_25
p226
aV3#3_26
p227
aV3#3_22
p228
aV3#3_23
p229
aV2#2_19
p230
aV2#2_21
p231
aV2#2_20
p232
aV5#5_39
p233
aV5#5_38
p234
aV5#5_40
p235
aV5#5_41
p236
aV5#5_37
p237
aV5#5_36
p238
aV4#4_27
p239
aV4#4_29
p240
aV4#4_28
p241
aV4#4_32
p242
aV4#4_33
p243
aV4#4_30
p244
aV4#4_31
p245
aV4#4_34
p246
aV4#4_35
p247
aV7#7_51
p248
aV7#7_50
p249
aV6#6_49
p250
aV6#6_48
p251
aV6#6_45
p252
aV6#6_44
p253
aV6#6_47
p254
aV6#6_46
p255
aV6#6_43
p256
aV6#6_42
p257
aV9#9_59
p258
aV9#9_58
p259
aV9#9_57
p260
aV9#9_56
p261
aV9#9_55
p262
aV9#9_61
p263
aV9#9_62
p264
aV9#9_63
p265
aV9#9_60
p266
aV8#8_54
p267
aV8#8_52
p268
aV8#8_53
p269
asI154
(lp270
V0#0_2
p271
asI155
(lp272
sI156
(lp273
V2#2_21
p274
asI157
(lp275
sI158
(lp276
sI159
(lp277
V3#3_24
p278
asI160
(lp279
V8#8_53
p280
asI161
(lp281
V9#9_62
p282
asI162
(lp283
sI163
(lp284
V3#3_26
p285
asI164
(lp286
sI165
(lp287
sI166
(lp288
V4#4_31
p289
asI167
(lp290
sI168
(lp291
V2#2_19
p292
asI169
(lp293
V4#None
p294
aV0#None
p295
asI170
(lp296
V0#0_1
p297
asI171
(lp298
sI172
(lp299
V2#None
p300
asI173
(lp301
V9#9_55
p302
asI174
(lp303
V0#0_7
p304
asI175
(lp305
V1#1_11
p306
asI176
(lp307
V4#4_33
p308
asI177
(lp309
sI178
(lp310
V2#None
p311
asI179
(lp312
V9#9_63
p313
asI180
(lp314
V0#0_4
p315
asI181
(lp316
sI182
(lp317
V6#6_46
p318
asI183
(lp319
sI184
(lp320
V0#0_5
p321
asI185
(lp322
V3#3_22
p323
asI186
(lp324
V4#4_30
p325
asI187
(lp326
V5#None
p327
asI188
(lp328
V6#6_43
p329
asI189
(lp330
V1#1_10
p331
asI190
(lp332
V6#6_42
p333
asI191
(lp334
V3#3_25
p335
asI192
(lp336
V0#0_0
p337
asI193
(lp338
sI194
(lp339
V6#None
p340
aV3#None
p341
asI195
(lp342
V2#None
p343
asI196
(lp344
V3#None
p345
aV1#None
p346
asI197
(lp347
V9#None
p348
asI198
(lp349
V7#None
p350
asI199
(lp351
V8#None
p352
as.