(dp0
(I103
V0_6
p1
tp2
((lp3
I103
aI76
aI3
a(lp4
I142
atp5
s(I134
V3_26
p6
tp7
((lp8
I134
aI108
aI67
aI4
aI112
aI118
a(lp9
I126
atp10
s(I113
V4_29
p11
tp12
((lp13
I113
aI76
aI98
aI7
aI105
a(lp14
I98
atp15
s(I193
V0_4
p16
tp17
((lp18
I193
aI177
aI85
aI6
aI3
aI112
aI151
a(lp19
I132
atp20
s(I173
V2_21
p21
tp22
((lp23
I173
aI110
aI112
aI80
aI138
a(lp24
I123
atp25
s(I106
V3_24
p26
tp27
((lp28
I106
aI104
aI3
aI76
a(lp29
I120
atp30
s(I174
V9_58
p31
tp32
((lp33
I174
aI108
aI5
aI110
a(lp34
I100
atp35
s(I121
V6_44
p36
tp37
((lp38
I121
aI102
aI1
aI80
aI165
a(lp39
I148
atp40
s(I105
V4_31
p41
tp42
((lp43
I105
aI7
aI5
aI91
aI157
a(lp44
I119
atp45
s(I75
V8_54
p46
tp47
((lp48
I75
aI106
aI185
a(lp49
I124
atp50
s(I165
V6_48
p51
tp52
((lp53
I165
aI80
aI112
aI105
aI166
a(lp54
I153
atp55
s(I194
V3_22
p56
tp57
((lp58
I194
aI190
aI109
aI106
aI191
a(lp59
I90
atp60
s(I169
V0_0
p61
tp62
((lp63
I169
aI112
aI3
aI6
aI85
aI177
aI193
a(lp64
I89
atp65
s(I196
g56
tp66
((lp67
I196
aI185
aI112
aI100
aI186
a(lp68
I82
atp69
s(I186
V3_25
p70
tp71
((lp72
I186
aI99
aI15
aI101
a(lp73
I103
atp74
s(I111
V9_63
p75
tp76
((lp77
I111
aI179
aI92
aI180
a(lp78
I117
atp79
s(I152
V1_10
p80
tp81
((lp82
I152
aI111
aI105
aI74
aI153
a(lp83
I10
atp84
s(I103
V0_7
p85
tp86
((lp87
I103
aI91
aI5
a(lp88
I143
atp89
s(I189
V5_39
p90
tp91
((lp92
I189
aI103
aI0
aI2
aI92
a(lp93
I134
atp94
s(I172
V2_19
p95
tp96
((lp97
I172
aI64
aI105
aI112
aI110
aI173
a(lp98
I95
atp99
s(I193
V0_1
p100
tp101
((lp102
I193
aI177
aI85
aI6
aI0
aI103
a(lp103
I130
atp104
s(I188
V5_38
p105
tp106
((lp107
I188
aI109
aI108
a(lp108
I112
atp109
s(I197
V9_55
p110
tp111
((lp112
I197
aI173
aI110
aI5
aI108
aI174
a(lp113
I80
atp114
s(I195
g95
tp115
((lp116
I195
aI175
aI106
aI15
aI99
aI176
a(lp117
I94
atp118
s(I153
V1_16
p119
tp120
((lp121
I153
aI74
aI105
aI99
aI77
aI154
a(lp122
I135
atp123
s(I194
V6_42
p124
tp125
((lp126
I194
aI190
aI83
aI2
aI1
aI102
aI121
a(lp127
I145
atp128
s(I103
V0_5
p129
tp130
((lp131
I103
aI0
aI15
aI51
a(lp132
I141
atp133
s(I155
V4_33
p134
tp135
((lp136
I155
aI96
aI1
aI2
aI87
aI156
a(lp137
I144
atp138
s(I111
V9_62
p139
tp140
((lp141
I111
aI162
a(lp142
I116
atp143
s(I191
g70
tp144
((lp145
I191
aI106
aI112
aI169
aI192
a(lp146
I105
atp147
s(I179
V2_20
p148
tp149
((lp150
I179
aI111
aI105
aI99
aI163
a(lp151
I128
atp152
s(I152
V1_18
p153
tp154
(g82
(lp155
I18
atp156
s(I175
V9_57
p157
tp158
((lp159
I175
aI106
aI15
aI7
aI107
a(lp160
I113
atp161
s(I105
V4_35
p162
tp163
((lp164
I105
aI93
aI6
aI85
aI167
a(lp165
I118
atp166
s(I176
g21
tp167
((lp168
I176
aI103
aI0
aI109
a(lp169
I115
atp170
s(I174
V9_56
p171
tp172
((lp173
I174
aI108
aI109
aI106
aI175
a(lp174
I99
atp175
s(I136
V7_51
p176
tp177
((lp178
I136
aI82
aI4
aI110
aI137
a(lp179
I149
atp180
s(I196
V1_9
p181
tp182
((lp183
I196
aI185
aI112
aI100
aI111
aI152
a(lp184
I88
atp185
s(I174
V9_61
p186
tp187
((lp188
I174
aI108
aI109
aI104
a(lp189
I102
atp190
s(I122
V6_45
p191
tp192
((lp193
I122
aI108
aI5
aI110
aI141
a(lp194
I151
atp195
s(I152
V1_13
p196
tp197
(g82
(lp198
I13
atp199
s(I178
g95
tp200
((lp201
I178
aI107
aI2
aI92
aI179
a(lp202
I108
atp203
s(I112
V9_60
p204
tp205
((lp206
I112
aI100
aI111
a(lp207
I109
atp208
s(I169
V4_27
p209
tp210
((lp211
I169
aI112
aI3
aI76
aI113
a(lp212
I84
atp213
s(I188
V5_37
p214
tp215
((lp216
I188
aI109
aI106
aI189
a(lp217
I111
atp218
s(I165
V6_46
p219
tp220
((lp221
I165
aI80
aI1
aI2
aI63
aI81
a(lp222
I154
atp223
s(I77
V4_30
p224
tp225
((lp226
I77
aI15
aI1
aI96
aI155
a(lp227
I127
atp228
s(I179
g21
tp229
((lp230
I179
aI111
aI100
aI74
aI153
a(lp231
I21
atp232
s(I153
V8_53
p233
tp234
((lp235
I153
aI74
aI105
aI88
aI184
aI75
a(lp236
I96
atp237
s(I153
V1_17
p238
tp239
((lp240
I153
aI74
aI100
aI112
aI146
a(lp241
I138
atp242
s(I176
g148
tp243
((lp244
I176
aI99
aI6
aI85
aI177
a(lp245
I114
atp246
s(I106
g6
tp247
((lp248
I106
aI109
aI190
a(lp249
I121
atp250
s(I157
V4_32
p251
tp252
((lp253
I157
aI91
aI6
aI15
aI59
aI158
a(lp254
I137
atp255
s(I103
V0_8
p256
tp257
((lp258
I103
aI0
aI2
aI1
a(lp259
I139
atp260
s(I156
V4_34
p261
tp262
((lp263
I156
aI87
aI105
aI111
aI79
aI149
a(lp264
I146
atp265
s(I152
V1_12
p266
tp267
(g82
(lp268
I12
atp269
s(I121
V6_43
p270
tp271
((lp272
I121
aI102
aI7
aI108
aI122
a(lp273
I147
atp274
s(I122
V6_49
p275
tp276
((lp277
I122
aI108
aI94
aI123
a(lp278
I150
atp279
s(I189
V5_40
p280
tp281
((lp282
I189
aI106
aI191
aI102
a(lp283
I133
atp284
s(I186
V3_23
p285
tp286
((lp287
I186
aI99
aI15
aI106
a(lp288
I104
atp289
s(I134
g26
tp290
((lp291
I134
aI108
aI5
aI101
aI135
a(lp292
I125
atp293
s(I199
V8_52
p294
tp295
((lp296
I199
aI197
aI173
aI110
aI112
aI105
aI74
aI153
a(lp297
I52
atp298
s(I173
g148
tp299
((lp300
I173
aI110
aI5
aI111
aI161
a(lp301
I122
atp302
s(I188
V5_41
p303
tp304
((lp305
I188
aI109
aI3
aI48
a(lp306
I110
atp307
s(I122
V6_47
p308
tp309
((lp310
I122
aI108
aI67
aI4
aI112
aI131
a(lp311
I152
atp312
s(I174
V9_59
p313
tp314
((lp315
I174
aI111
aI100
aI112
a(lp316
I101
atp317
s(I152
V1_15
p318
tp319
(g82
(lp320
I15
atp321
s(I191
g285
tp322
((lp323
I191
aI97
aI5
aI108
aI134
a(lp324
I106
atp325
s(I193
V0_2
p326
tp327
((lp328
I193
aI177
aI85
aI6
aI2
aI107
aI139
a(lp329
I131
atp330
s(I153
V1_14
p331
tp332
((lp333
I153
aI74
aI100
aI4
aI8
a(lp334
I136
atp335
s(I113
V4_28
p336
tp337
((lp338
I113
aI76
aI3
aI15
aI77
a(lp339
I97
atp340
s(I103
V0_3
p341
tp342
((lp343
I103
aI108
aI7
a(lp344
I140
atp345
s(I152
V1_11
p346
tp347
(g82
(lp348
I11
atp349
s(I198
V7_50
p350
tp351
((lp352
I198
aI196
aI185
aI112
aI4
aI82
aI136
a(lp353
I129
atp354
s(I187
V5_36
p355
tp356
((lp357
I187
aI112
aI3
aI109
aI188
a(lp358
I92
atp359
s.