(dp0
I0
(lp1
sI1
(lp2
V0#0_8
p3
asI2
(lp4
sI3
(lp5
V0#0_6
p6
asI4
(lp7
sI5
(lp8
V0#0_7
p9
asI6
(lp10
sI7
(lp11
V0#0_3
p12
asI8
(lp13
V1#1_14
p14
asI9
(lp15
sI10
(lp16
sI11
(lp17
sI12
(lp18
sI13
(lp19
sI14
(lp20
sI15
(lp21
sI16
(lp22
sI17
(lp23
sI18
(lp24
sI19
(lp25
sI20
(lp26
sI21
(lp27
sI22
(lp28
sI23
(lp29
sI24
(lp30
sI25
(lp31
sI26
(lp32
sI27
(lp33
sI28
(lp34
sI29
(lp35
sI30
(lp36
sI31
(lp37
sI32
(lp38
sI33
(lp39
sI34
(lp40
sI35
(lp41
sI36
(lp42
sI37
(lp43
sI38
(lp44
sI39
(lp45
sI40
(lp46
sI41
(lp47
sI42
(lp48
sI43
(lp49
sI44
(lp50
sI45
(lp51
sI46
(lp52
sI47
(lp53
sI48
(lp54
V5#5_41
p55
asI49
(lp56
sI50
(lp57
sI51
(lp58
V0#0_5
p59
asI52
(lp60
sI53
(lp61
sI54
(lp62
sI55
(lp63
sI56
(lp64
sI57
(lp65
sI58
(lp66
sI59
(lp67
sI60
(lp68
sI61
(lp69
sI62
(lp70
sI63
(lp71
sI64
(lp72
sI65
(lp73
sI66
(lp74
sI67
(lp75
sI68
(lp76
sI69
(lp77
sI70
(lp78
sI71
(lp79
sI72
(lp80
sI73
(lp81
sI74
(lp82
sI75
(lp83
V8#8_53
p84
asI76
(lp85
V3#3_24
p86
asI77
(lp87
V4#4_28
p88
asI78
(lp89
sI79
(lp90
sI80
(lp91
sI81
(lp92
V6#6_46
p93
asI82
(lp94
sI83
(lp95
sI84
(lp96
sI85
(lp97
sI86
(lp98
sI87
(lp99
sI88
(lp100
sI89
(lp101
sI90
(lp102
sI91
(lp103
sI92
(lp104
V5#5_39
p105
asI93
(lp106
sI94
(lp107
sI95
(lp108
sI96
(lp109
sI97
(lp110
sI98
(lp111
sI99
(lp112
sI100
(lp113
sI101
(lp114
V3#3_25
p115
asI102
(lp116
V5#5_40
p117
asI103
(lp118
V0#0_1
p119
asI104
(lp120
V9#9_61
p121
asI105
(lp122
V4#4_29
p123
asI106
(lp124
V3#3_23
p125
asI107
(lp126
V9#9_57
p127
asI108
(lp128
V5#5_38
p129
asI109
(lp130
V2#2_21
p131
asI110
(lp132
V9#9_58
p133
asI111
(lp134
V9#9_60
p135
asI112
(lp136
V9#9_59
p137
asI113
(lp138
V4#4_27
p139
asI114
(lp140
sI115
(lp141
sI116
(lp142
sI117
(lp143
sI118
(lp144
V3#3_26
p145
asI119
(lp146
sI120
(lp147
sI121
(lp148
V6#6_42
p149
asI122
(lp150
V6#6_43
p151
asI123
(lp152
V6#6_49
p153
asI124
(lp154
sI125
(lp155
sI126
(lp156
sI127
(lp157
sI128
(lp158
sI129
(lp159
sI130
(lp160
sI131
(lp161
V6#6_47
p162
asI132
(lp163
sI133
(lp164
sI134
(lp165
V3#3_23
p166
asI135
(lp167
V3#3_24
p168
asI136
(lp169
V7#7_50
p170
asI137
(lp171
V7#7_51
p172
asI138
(lp173
V2#2_21
p174
asI139
(lp175
V0#0_2
p176
asI140
(lp177
sI141
(lp178
V6#6_45
p179
asI142
(lp180
sI143
(lp181
sI144
(lp182
sI145
(lp183
sI146
(lp184
V1#1_17
p185
asI147
(lp186
sI148
(lp187
sI149
(lp188
V4#4_34
p189
asI150
(lp190
sI151
(lp191
V0#0_4
p192
asI152
(lp193
V1#1_9
p194
asI153
(lp195
V1#1_18
p196
aV1#1_13
p197
aV1#1_12
p198
aV1#1_11
p199
aV1#1_10
p200
aV1#1_17
p201
aV1#1_16
p202
aV1#1_15
p203
aV1#1_14
p204
aV1#1_9
p205
aV0#0_8
p206
aV0#0_6
p207
aV0#0_7
p208
aV0#0_4
p209
aV0#0_5
p210
aV0#0_2
p211
aV0#0_3
p212
aV0#0_0
p213
aV0#0_1
p214
aV3#3_24
p215
aV3#3_25
p216
aV3#3_26
p217
aV3#3_22
p218
aV3#3_23
p219
aV2#2_19
p220
aV2#2_21
p221
aV2#2_20
p222
aV5#5_39
p223
aV5#5_38
p224
aV5#5_40
p225
aV5#5_41
p226
aV5#5_37
p227
aV5#5_36
p228
aV4#4_27
p229
aV4#4_29
p230
aV4#4_28
p231
aV4#4_32
p232
aV4#4_33
p233
aV4#4_30
p234
aV4#4_31
p235
aV4#4_34
p236
aV4#4_35
p237
aV7#7_51
p238
aV7#7_50
p239
aV6#6_49
p240
aV6#6_48
p241
aV6#6_45
p242
aV6#6_44
p243
aV6#6_47
p244
aV6#6_46
p245
aV6#6_43
p246
aV6#6_42
p247
aV9#9_59
p248
aV9#9_58
p249
aV9#9_57
p250
aV9#9_56
p251
aV9#9_55
p252
aV9#9_61
p253
aV9#9_62
p254
aV9#9_63
p255
aV9#9_60
p256
aV8#8_54
p257
aV8#8_52
p258
aV8#8_53
p259
asI154
(lp260
V1#1_16
p261
asI155
(lp262
V4#4_30
p263
asI156
(lp264
V4#4_33
p265
asI157
(lp266
V4#4_31
p267
asI158
(lp268
V4#4_32
p269
asI159
(lp270
sI160
(lp271
sI161
(lp272
V2#2_20
p273
asI162
(lp274
V9#9_62
p275
asI163
(lp276
V2#2_20
p277
asI164
(lp278
sI165
(lp279
V6#6_44
p280
asI166
(lp281
V6#6_48
p282
asI167
(lp283
V4#4_35
p284
asI168
(lp285
sI169
(lp286
V4#None
p287
aV0#None
p288
asI170
(lp289
sI171
(lp290
sI172
(lp291
V2#None
p292
asI173
(lp293
V2#2_19
p294
asI174
(lp295
V9#9_55
p296
asI175
(lp297
V9#9_56
p298
asI176
(lp299
V2#2_19
p300
asI177
(lp301
V2#2_20
p302
asI178
(lp303
V2#None
p304
asI179
(lp305
V2#2_19
p306
asI180
(lp307
V9#9_63
p308
asI181
(lp309
sI182
(lp310
sI183
(lp311
sI184
(lp312
sI185
(lp313
V8#8_54
p314
asI186
(lp315
V3#3_22
p316
asI187
(lp317
V5#None
p318
asI188
(lp319
V5#5_36
p320
asI189
(lp321
V5#5_37
p322
asI190
(lp323
V3#3_26
p324
asI191
(lp325
V3#3_22
p326
asI192
(lp327
V3#3_25
p328
asI193
(lp329
V0#0_0
p330
asI194
(lp331
V6#None
p332
aV3#None
p333
asI195
(lp334
V2#None
p335
asI196
(lp336
V3#None
p337
aV1#None
p338
asI197
(lp339
V9#None
p340
asI198
(lp341
V7#None
p342
asI199
(lp343
V8#None
p344
as.