(dp0
I0
(lp1
sI1
(lp2
sI2
(lp3
sI3
(lp4
sI4
(lp5
sI5
(lp6
sI6
(lp7
sI7
(lp8
sI8
(lp9
sI9
(lp10
sI10
(lp11
sI11
(lp12
sI12
(lp13
sI13
(lp14
sI14
(lp15
sI15
(lp16
sI16
(lp17
sI17
(lp18
sI18
(lp19
sI19
(lp20
sI20
(lp21
sI21
(lp22
sI22
(lp23
sI23
(lp24
sI24
(lp25
sI25
(lp26
sI26
(lp27
sI27
(lp28
sI28
(lp29
sI29
(lp30
sI30
(lp31
sI31
(lp32
sI32
(lp33
sI33
(lp34
sI34
(lp35
sI35
(lp36
sI36
(lp37
sI37
(lp38
sI38
(lp39
sI39
(lp40
sI40
(lp41
sI41
(lp42
sI42
(lp43
sI43
(lp44
sI44
(lp45
sI45
(lp46
sI46
(lp47
sI47
(lp48
sI48
(lp49
sI49
(lp50
sI50
(lp51
sI51
(lp52
sI52
(lp53
sI53
(lp54
sI54
(lp55
sI55
(lp56
sI56
(lp57
sI57
(lp58
sI58
(lp59
sI59
(lp60
sI60
(lp61
sI61
(lp62
sI62
(lp63
sI63
(lp64
sI64
(lp65
sI65
(lp66
sI66
(lp67
sI67
(lp68
sI68
(lp69
sI69
(lp70
sI70
(lp71
sI71
(lp72
sI72
(lp73
sI73
(lp74
sI74
(lp75
sI75
(lp76
sI76
(lp77
sI77
(lp78
sI78
(lp79
sI79
(lp80
sI80
(lp81
sI81
(lp82
sI82
(lp83
sI83
(lp84
sI84
(lp85
sI85
(lp86
sI86
(lp87
sI87
(lp88
sI88
(lp89
sI89
(lp90
sI90
(lp91
sI91
(lp92
sI92
(lp93
sI93
(lp94
sI94
(lp95
sI95
(lp96
sI96
(lp97
sI97
(lp98
sI98
(lp99
sI99
(lp100
sI100
(lp101
sI101
(lp102
V8#8_53
p103
asI102
(lp104
V3#3_23
p105
asI103
(lp106
V0#0_1
p107
asI104
(lp108
V9#9_58
p109
asI105
(lp110
V4#4_28
p111
asI106
(lp112
V3#3_25
p113
asI107
(lp114
V2#2_19
p115
asI108
(lp116
V1#1_13
p117
asI109
(lp118
V4#4_29
p119
asI110
(lp120
V3#3_22
p121
asI111
(lp122
V8#8_52
p123
asI112
(lp124
V9#9_56
p125
asI113
(lp126
V4#4_27
p127
asI114
(lp128
V7#7_51
p129
asI115
(lp130
V8#8_54
p131
asI116
(lp132
V5#5_38
p133
asI117
(lp134
V6#6_49
p135
asI118
(lp136
sI119
(lp137
V2#2_21
p138
asI120
(lp139
sI121
(lp140
V4#4_35
p141
asI122
(lp142
V1#1_15
p143
asI123
(lp144
V0#0_3
p145
asI124
(lp146
V3#3_24
p147
asI125
(lp148
V6#6_44
p149
asI126
(lp150
V5#5_37
p151
asI127
(lp152
V6#6_47
p153
asI128
(lp154
V1#1_17
p155
asI129
(lp156
V4#4_32
p157
asI130
(lp158
V9#9_59
p159
asI131
(lp160
sI132
(lp161
V9#9_57
p162
asI133
(lp163
sI134
(lp164
V5#5_40
p165
asI135
(lp166
V0#0_6
p167
asI136
(lp168
V9#9_60
p169
asI137
(lp170
V6#6_46
p171
asI138
(lp172
V3#3_25
p173
asI139
(lp174
V4#4_34
p175
asI140
(lp176
V3#3_24
p177
asI141
(lp178
V0#0_5
p179
asI142
(lp180
V1#1_16
p181
asI143
(lp182
sI144
(lp183
V3#3_26
p184
asI145
(lp185
V0#0_8
p186
asI146
(lp187
V3#3_26
p188
asI147
(lp189
V6#6_45
p190
asI148
(lp191
V3#3_23
p192
asI149
(lp193
sI150
(lp194
V1#1_11
p195
asI151
(lp196
V0#0_2
p197
asI152
(lp198
V1#1_9
p199
asI153
(lp200
V1#1_18
p201
aV1#1_13
p202
aV1#1_12
p203
aV1#1_11
p204
aV1#1_10
p205
aV1#1_17
p206
aV1#1_16
p207
aV1#1_15
p208
aV1#1_14
p209
aV1#1_9
p210
aV0#0_8
p211
aV0#0_6
p212
aV0#0_7
p213
aV0#0_4
p214
aV0#0_5
p215
aV0#0_2
p216
aV0#0_3
p217
aV0#0_0
p218
aV0#0_1
p219
aV3#3_24
p220
aV3#3_25
p221
aV3#3_26
p222
aV3#3_22
p223
aV3#3_23
p224
aV2#2_19
p225
aV2#2_21
p226
aV2#2_20
p227
aV5#5_39
p228
aV5#5_38
p229
aV5#5_40
p230
aV5#5_41
p231
aV5#5_37
p232
aV5#5_36
p233
aV4#4_27
p234
aV4#4_29
p235
aV4#4_28
p236
aV4#4_32
p237
aV4#4_33
p238
aV4#4_30
p239
aV4#4_31
p240
aV4#4_34
p241
aV4#4_35
p242
aV7#7_51
p243
aV7#7_50
p244
aV6#6_49
p245
aV6#6_48
p246
aV6#6_45
p247
aV6#6_44
p248
aV6#6_47
p249
aV6#6_46
p250
aV6#6_43
p251
aV6#6_42
p252
aV9#9_59
p253
aV9#9_58
p254
aV9#9_57
p255
aV9#9_56
p256
aV9#9_55
p257
aV9#9_61
p258
aV9#9_62
p259
aV9#9_63
p260
aV9#9_60
p261
aV8#8_54
p262
aV8#8_52
p263
aV8#8_53
p264
asI154
(lp265
sI155
(lp266
sI156
(lp267
V9#9_63
p268
asI157
(lp269
V0#0_7
p270
asI158
(lp271
V9#9_62
p272
asI159
(lp273
sI160
(lp274
V1#1_12
p275
asI161
(lp276
V2#2_20
p277
asI162
(lp278
V9#9_61
p279
asI163
(lp280
V2#2_20
p281
asI164
(lp282
V1#1_18
p283
asI165
(lp284
sI166
(lp285
sI167
(lp286
V4#4_30
p287
asI168
(lp288
V1#1_14
p289
asI169
(lp290
V4#None
p291
aV0#None
p292
asI170
(lp293
sI171
(lp294
V2#2_20
p295
asI172
(lp296
V2#None
p297
asI173
(lp298
V2#2_19
p299
asI174
(lp300
V9#9_55
p301
asI175
(lp302
V0#0_4
p303
asI176
(lp304
V7#7_50
p305
asI177
(lp306
V4#4_33
p307
asI178
(lp308
V2#None
p309
asI179
(lp310
V2#2_19
p311
asI180
(lp312
V1#1_10
p313
asI181
(lp314
V2#2_21
p315
asI182
(lp316
sI183
(lp317
V6#6_48
p318
asI184
(lp319
sI185
(lp320
V6#6_43
p321
asI186
(lp322
V3#3_22
p323
asI187
(lp324
V5#None
p325
asI188
(lp326
V5#5_36
p327
asI189
(lp328
V4#4_31
p329
asI190
(lp330
V5#5_39
p331
asI191
(lp332
V6#6_42
p333
asI192
(lp334
V5#5_41
p335
asI193
(lp336
V0#0_0
p337
asI194
(lp338
V6#None
p339
aV3#None
p340
asI195
(lp341
V2#None
p342
asI196
(lp343
V3#None
p344
aV1#None
p345
asI197
(lp346
V9#None
p347
asI198
(lp348
V7#None
p349
asI199
(lp350
V8#None
p351
as.