(dp0
(I103
V0_6
p1
tp2
((lp3
I103
aI0
aI110
aI141
a(lp4
I147
atp5
s(I113
V4_29
p6
tp7
((lp8
I113
aI76
aI3
aI109
a(lp9
I98
atp10
s(I193
V0_4
p11
tp12
((lp13
I193
aI177
aI85
aI6
aI3
aI112
aI151
a(lp14
I137
atp15
s(I173
V2_21
p16
tp17
((lp18
I173
aI110
aI4
aI7
aI81
aI119
a(lp19
I127
atp20
s(I139
V4_34
p21
tp22
((lp23
I139
aI107
aI72
aI103
aI91
aI157
a(lp24
I152
atp25
s(I174
V9_58
p26
tp27
((lp28
I174
aI108
aI109
aI104
a(lp29
I101
atp30
s(I185
V6_49
p31
tp32
((lp33
I185
aI106
aI109
aI117
a(lp34
I156
atp35
s(I165
V6_48
p36
tp37
((lp38
I165
aI80
aI112
aI105
aI99
aI163
a(lp39
I159
atp40
s(I194
V3_22
p41
tp42
((lp43
I194
aI190
aI109
aI0
aI110
a(lp44
I91
atp45
s(I169
V0_0
p46
tp47
((lp48
I169
aI112
aI3
aI6
aI85
aI177
aI193
a(lp49
I90
atp50
s(I196
g41
tp51
((lp52
I196
aI185
aI112
aI100
aI186
a(lp53
I83
atp54
s(I186
V3_25
p55
tp56
((lp57
I186
aI99
aI15
aI106
a(lp58
I104
atp59
s(I152
V1_10
p60
tp61
((lp62
I152
aI111
aI179
aI92
aI180
a(lp63
I110
atp64
s(I164
V3_24
p65
tp66
((lp67
I164
aI102
aI1
aI3
aI112
aI146
a(lp68
I132
atp69
s(I102
g65
tp70
((lp71
I102
aI7
aI84
aI170
aI192
a(lp72
I121
atp73
s(I172
V2_19
p74
tp75
((lp76
I172
aI64
aI105
aI112
aI110
aI173
a(lp77
I96
atp78
s(I193
V0_1
p79
tp80
((lp81
I193
aI177
aI85
aI6
aI0
aI103
a(lp82
I135
atp83
s(I188
V5_38
p84
tp85
((lp86
I188
aI92
aI5
aI89
aI126
a(lp87
I119
atp88
s(I110
g55
tp89
((lp90
I110
aI112
aI80
aI138
a(lp91
I107
atp92
s(I197
V9_55
p93
tp94
((lp95
I197
aI173
aI110
aI5
aI108
aI174
a(lp96
I81
atp97
s(I195
g74
tp98
((lp99
I195
aI175
aI106
aI15
aI7
aI107
a(lp100
I95
atp101
s(I150
V1_14
p102
tp103
((lp104
I150
aI91
aI103
aI0
aI109
aI190
a(lp105
I140
atp106
s(I194
V6_42
p107
tp108
((lp109
I194
aI190
aI109
aI106
aI191
a(lp110
I151
atp111
s(I103
V0_5
p112
tp113
((lp114
I103
aI108
aI94
aI123
a(lp115
I146
atp116
s(I108
V1_17
p117
tp118
((lp119
I108
aI67
aI4
aI112
aI116
a(lp120
I143
atp121
s(I162
V9_60
p122
tp123
((lp124
I162
aI111
aI100
aI4
aI82
aI136
a(lp125
I128
atp126
s(I185
V6_47
p127
tp128
((lp129
I185
aI106
aI109
aI127
a(lp130
I158
atp131
s(I179
V2_20
p132
tp133
((lp134
I179
aI111
aI100
aI74
aI153
a(lp135
I20
atp136
s(I152
V1_18
p137
tp138
((lp139
I152
aI111
aI5
aI110
aI160
a(lp140
I115
atp141
s(I136
V9_62
p142
tp143
((lp144
I136
aI82
aI83
aI2
aI107
aI168
a(lp145
I149
atp146
s(I111
V8_53
p147
tp148
((lp149
I111
aI5
aI101
a(lp150
I99
atp151
s(I191
V6_44
p152
tp153
((lp154
I191
aI106
aI112
aI80
aI165
a(lp155
I155
atp156
s(I174
V9_56
p157
tp158
((lp159
I174
aI111
aI100
aI112
a(lp160
I100
atp161
s(I196
V1_9
p162
tp163
((lp164
I196
aI185
aI112
aI100
aI111
aI152
a(lp165
I89
atp166
s(I118
V5_40
p167
tp168
((lp169
I118
aI112
aI4
aI67
aI108
aI134
a(lp170
I141
atp171
s(I174
V9_61
p172
tp173
((lp174
I174
aI108
aI67
aI130
a(lp175
I103
atp176
s(I105
V4_30
p177
tp178
((lp179
I105
aI93
aI6
aI85
aI167
a(lp180
I125
atp181
s(I152
V1_13
p182
tp183
((lp184
I152
aI111
aI5
aI108
a(lp185
I113
atp186
s(I178
g74
tp187
((lp188
I178
aI107
aI2
aI92
aI179
a(lp189
I109
atp190
s(I193
V0_2
p191
tp192
((lp193
I193
aI177
a(lp194
I136
atp195
s(I150
V1_16
p196
tp197
((lp198
I150
aI91
aI6
aI15
aI59
aI158
a(lp199
I139
atp200
s(I169
V4_27
p201
tp202
((lp203
I169
aI112
aI3
aI76
aI113
a(lp204
I85
atp205
s(I188
V5_37
p206
tp207
((lp208
I188
aI109
aI3
aI112
aI118
a(lp209
I118
atp210
s(I112
V9_57
p211
tp212
((lp213
I112
aI4
aI97
aI132
a(lp214
I116
atp215
s(I176
V7_51
p216
tp217
((lp218
I176
aI99
aI15
aI101
aI114
a(lp219
I153
atp220
s(I179
g16
tp221
(g134
(lp222
I21
atp223
s(I109
V4_31
p224
tp225
((lp226
I109
aI106
aI189
a(lp227
I124
atp228
s(I136
V9_63
p229
tp230
((lp231
I136
aI82
aI86
aI15
aI71
aI142
a(lp232
I150
atp233
s(I118
V5_39
p234
tp235
((lp236
I118
aI112
aI169
aI192
aI170
a(lp237
I142
atp238
s(I167
V4_33
p239
tp240
((lp241
I167
aI85
aI6
aI2
aI107
aI139
a(lp242
I138
atp243
s(I189
V4_32
p244
tp245
((lp246
I189
aI103
aI65
aI111
aI129
a(lp247
I131
atp248
s(I107
g132
tp249
((lp250
I107
aI171
a(lp251
I129
atp252
s(I109
V4_35
p253
tp254
((lp255
I109
aI3
aI1
aI102
aI121
a(lp256
I123
atp257
s(I110
V3_23
p258
tp259
((lp260
I110
aI61
aI102
a(lp261
I108
atp262
s(I103
V0_8
p263
tp264
((lp265
I103
aI72
aI107
aI66
aI145
a(lp266
I144
atp267
s(I152
V1_12
p268
tp269
((lp270
I152
aI111
aI5
aI91
aI150
a(lp271
I112
atp272
s(I101
V8_54
p273
tp274
((lp275
I101
aI96
aI3
aI109
aI115
a(lp276
I120
atp277
s(I102
V3_26
p278
tp279
((lp280
I102
aI124
a(lp281
I122
atp282
s(I103
V0_7
p283
tp284
((lp285
I103
aI0
aI4
aI101
aI135
a(lp286
I148
atp287
s(I186
g258
tp288
((lp289
I186
aI99
aI7
aI102
aI164
a(lp290
I105
atp291
s(I164
g278
tp292
((lp293
I164
aI102
aI7
aI105
aI166
a(lp294
I133
atp295
s(I199
V8_52
p296
tp297
((lp298
I199
aI197
aI173
aI110
aI5
aI111
a(lp299
I78
atp300
s(I173
g132
tp301
((lp302
I173
aI110
aI5
aI111
aI161
a(lp303
I126
atp304
s(I188
V5_41
p305
tp306
((lp307
I188
aI109
aI106
aI128
a(lp308
I117
atp309
s(I191
V6_43
p310
tp311
((lp312
I191
aI106
aI185
a(lp313
I154
atp314
s(I174
V9_59
p315
tp316
((lp317
I174
aI111
aI162
a(lp318
I102
atp319
s(I185
V6_45
p320
tp321
((lp322
I185
aI112
aI100
aI147
a(lp323
I157
atp324
s(I152
V1_15
p325
tp326
((lp327
I152
aI111
aI5
aI108
aI122
a(lp328
I114
atp329
s(I107
g16
tp330
((lp331
I107
aI2
aI3
aI104
aI181
a(lp332
I130
atp333
s(I165
V6_46
p334
tp335
((lp336
I165
aI80
aI112
aI100
aI74
aI153
a(lp337
I46
atp338
s(I113
V4_28
p339
tp340
((lp341
I113
aI76
aI98
aI7
aI105
a(lp342
I97
atp343
s(I103
V0_3
p344
tp345
((lp346
I103
aI189
aI106
aI175
a(lp347
I145
atp348
s(I152
V1_11
p349
tp350
((lp351
I152
aI111
aI105
aI87
aI148
a(lp352
I111
atp353
s(I198
V7_50
p354
tp355
((lp356
I198
aI196
aI185
aI112
aI105
aI99
aI176
a(lp357
I134
atp358
s(I187
V5_36
p359
tp360
((lp361
I187
aI112
aI3
aI109
aI188
a(lp362
I93
atp363
s.