(dp0
(I153
V5_37
p1
tp2
((lp3
I153
a(lp4
I37
atp5
s(I197
V9_63
p6
tp7
((lp8
I197
a(lp9
I103
atp10
s(I172
V2_20
p11
tp12
((lp13
I172
a(lp14
I134
atp15
s(I169
V4_31
p16
tp17
((lp18
I169
a(lp19
I122
atp20
s(I196
V1_11
p21
tp22
((lp23
I196
a(lp24
I105
atp25
s(I196
V3_26
p26
tp27
(g23
(lp28
I96
atp29
s(I190
V3_23
p30
tp31
((lp32
I190
a(lp33
I144
atp34
s(I169
V0_5
p35
tp36
(g18
(lp37
I138
atp38
s(I190
V6_44
p39
tp40
(g32
(lp41
I148
atp42
s(I196
V1_17
p43
tp44
(g23
(lp45
I117
atp46
s(I169
V0_0
p47
tp48
(g18
(lp49
I124
atp50
s(I196
V3_22
p51
tp52
(g23
(lp53
I82
atp54
s(I190
V6_45
p55
tp56
(g32
(lp57
I150
atp58
s(I169
V0_4
p59
tp60
(g18
(lp61
I132
atp62
s(I169
V0_6
p63
tp64
(g18
(lp65
I139
atp66
s(I197
V9_62
p67
tp68
(g8
(lp69
I102
atp70
s(I169
V4_30
p71
tp72
(g18
(lp73
I120
atp74
s(I199
V8_54
p75
tp76
((lp77
I199
a(lp78
I83
atp79
s(I195
V2_19
p80
tp81
((lp82
I195
a(lp83
I101
atp84
s(I169
V0_3
p85
tp86
(g18
(lp87
I137
atp88
s(I194
V6_42
p89
tp90
((lp91
I194
aI190
a(lp92
I142
atp93
s(I153
V5_38
p94
tp95
(g3
(lp96
I38
atp97
s(I172
g80
tp98
(g13
(lp99
I129
atp100
s(I197
V9_58
p101
tp102
(g8
(lp103
I88
atp104
s(I169
V0_8
p105
tp106
(g18
(lp107
I136
atp108
s(I196
V1_16
p109
tp110
(g23
(lp111
I114
atp112
s(I169
V4_27
p113
tp114
(g18
(lp115
I112
atp116
s(I196
g30
tp117
(g23
(lp118
I92
atp119
s(I153
V2_21
p120
tp121
(g3
(lp122
I21
atp123
s(I197
V9_57
p124
tp125
(g8
(lp126
I93
atp127
s(I153
g11
tp128
(g3
(lp129
I20
atp130
s(I190
V6_43
p131
tp132
(g32
(lp133
I147
atp134
s(I196
V1_9
p135
tp136
(g23
(lp137
I98
atp138
s(I195
g11
tp139
(g82
(lp140
I110
atp141
s(I190
V3_24
p142
tp143
(g32
(lp144
I145
atp145
s(I197
V9_56
p146
tp147
(g8
(lp148
I87
atp149
s(I178
g80
tp150
((lp151
I178
aI107
aI7
aI74
aI153
a(lp152
I19
atp153
s(I190
V6_47
p154
tp155
(g32
(lp156
I151
atp157
s(I153
V5_39
p158
tp159
(g3
(lp160
I39
atp161
s(I197
V9_61
p162
tp163
(g8
(lp164
I90
atp165
s(I197
V9_59
p166
tp167
(g8
(lp168
I89
atp169
s(I190
V6_49
p170
tp171
(g32
(lp172
I149
atp173
s(I196
V1_15
p174
tp175
(g23
(lp176
I108
atp177
s(I169
V0_1
p178
tp179
(g18
(lp180
I130
atp181
s(I199
V8_53
p182
tp183
(g77
(lp184
I79
atp185
s(I169
V0_2
p186
tp187
(g18
(lp188
I131
atp189
s(I196
g142
tp190
(g23
(lp191
I95
atp192
s(I190
V3_25
p193
tp194
(g32
(lp195
I143
atp196
s(I195
g120
tp197
(g82
(lp198
I111
atp199
s(I197
V9_55
p200
tp201
(g8
(lp202
I80
atp203
s(I169
V4_32
p204
tp205
(g18
(lp206
I125
atp207
s(I153
V5_41
p208
tp209
(g3
(lp210
I41
atp211
s(I196
V1_10
p212
tp213
(g23
(lp214
I104
atp215
s(I196
V1_13
p216
tp217
(g23
(lp218
I107
atp219
s(I198
V7_51
p220
tp221
((lp222
I198
a(lp223
I128
atp224
s(I197
V9_60
p225
tp226
(g8
(lp227
I97
atp228
s(I172
g120
tp229
(g13
(lp230
I135
atp231
s(I190
V6_48
p232
tp233
(g32
(lp234
I152
atp235
s(I190
V6_46
p236
tp237
(g32
(lp238
I153
atp239
s(I199
V8_52
p240
tp241
(g77
(lp242
I77
atp243
s(I196
V1_12
p244
tp245
(g23
(lp246
I106
atp247
s(I196
g193
tp248
(g23
(lp249
I91
atp250
s(I169
V4_33
p251
tp252
(g18
(lp253
I127
atp254
s(I169
V0_7
p255
tp256
(g18
(lp257
I140
atp258
s(I169
V4_28
p259
tp260
(g18
(lp261
I118
atp262
s(I194
g51
tp263
(g91
(lp264
I141
atp265
s(I196
V1_18
p266
tp267
(g23
(lp268
I109
atp269
s(I169
V4_35
p270
tp271
(g18
(lp272
I121
atp273
s(I169
V4_34
p274
tp275
(g18
(lp276
I133
atp277
s(I153
V5_40
p278
tp279
(g3
(lp280
I40
atp281
s(I190
g26
tp282
(g32
(lp283
I146
atp284
s(I169
V4_29
p285
tp286
(g18
(lp287
I119
atp288
s(I196
V1_14
p289
tp290
(g23
(lp291
I115
atp292
s(I198
V7_50
p293
tp294
(g222
(lp295
I116
atp296
s(I187
V5_36
p297
tp298
((lp299
I187
aI112
aI100
aI74
aI153
a(lp300
I36
atp301
s.