(dp0
(I153
V5_37
p1
tp2
((lp3
I153
a(lp4
I37
atp5
s(I197
V9_63
p6
tp7
((lp8
I197
a(lp9
I117
atp10
s(I172
V2_20
p11
tp12
((lp13
I172
a(lp14
I104
atp15
s(I169
V0_5
p16
tp17
((lp18
I169
a(lp19
I94
atp20
s(I197
V9_56
p21
tp22
(g8
(lp23
I98
atp24
s(I196
V3_25
p25
tp26
((lp27
I196
a(lp28
I125
atp29
s(I190
V3_23
p30
tp31
((lp32
I190
a(lp33
I135
atp34
s(I197
V9_62
p35
tp36
(g8
(lp37
I116
atp38
s(I190
V6_47
p39
tp40
(g32
(lp41
I151
atp42
s(I190
V6_44
p43
tp44
(g32
(lp45
I148
atp46
s(I196
V1_17
p47
tp48
(g27
(lp49
I123
atp50
s(I169
V0_0
p51
tp52
(g18
(lp53
I83
atp54
s(I187
V5_36
p55
tp56
((lp57
I187
aI112
aI100
aI74
aI153
a(lp58
I36
atp59
s(I169
V4_31
p60
tp61
(g18
(lp62
I131
atp63
s(I190
V6_45
p64
tp65
(g32
(lp66
I150
atp67
s(I190
V6_46
p68
tp69
(g32
(lp70
I153
atp71
s(I169
V4_32
p72
tp73
(g18
(lp74
I137
atp75
s(I172
V2_19
p76
tp77
(g13
(lp78
I102
atp79
s(I169
V0_4
p80
tp81
(g18
(lp82
I89
atp83
s(I169
V4_30
p84
tp85
(g18
(lp86
I129
atp87
s(I197
V9_55
p88
tp89
(g8
(lp90
I86
atp91
s(I195
g76
tp92
((lp93
I195
a(lp94
I85
atp95
s(I197
V8_54
p96
tp97
(g8
(lp98
I145
atp99
s(I194
V6_42
p100
tp101
((lp102
I194
aI190
a(lp103
I146
atp104
s(I153
V5_38
p105
tp106
(g3
(lp107
I38
atp108
s(I197
V9_58
p109
tp110
(g8
(lp111
I99
atp112
s(I169
V0_8
p113
tp114
(g18
(lp115
I92
atp116
s(I169
V4_33
p117
tp118
(g18
(lp119
I138
atp120
s(I196
V1_16
p121
tp122
(g27
(lp123
I121
atp124
s(I169
V0_3
p125
tp126
(g18
(lp127
I93
atp128
s(I196
g30
tp129
(g27
(lp130
I126
atp131
s(I195
V2_21
p132
tp133
(g93
(lp134
I91
atp135
s(I153
g11
tp136
(g3
(lp137
I20
atp138
s(I190
V6_43
p139
tp140
(g32
(lp141
I147
atp142
s(I169
V0_7
p143
tp144
(g18
(lp145
I96
atp146
s(I190
V3_24
p147
tp148
(g32
(lp149
I139
atp150
s(I195
g11
tp151
(g93
(lp152
I90
atp153
s(I197
V8_53
p154
tp155
(g8
(lp156
I144
atp157
s(I178
g76
tp158
((lp159
I178
aI107
aI7
aI74
aI153
a(lp160
I19
atp161
s(I196
V1_18
p162
tp163
(g27
(lp164
I115
atp165
s(I153
V5_39
p166
tp167
(g3
(lp168
I39
atp169
s(I197
V9_61
p170
tp171
(g8
(lp172
I101
atp173
s(I197
V9_59
p174
tp175
(g8
(lp176
I100
atp177
s(I190
V6_49
p178
tp179
(g32
(lp180
I149
atp181
s(I169
V4_35
p182
tp183
(g18
(lp184
I130
atp185
s(I169
V4_27
p186
tp187
(g18
(lp188
I120
atp189
s(I196
V1_15
p190
tp191
(g27
(lp192
I114
atp193
s(I169
V0_2
p194
tp195
(g18
(lp196
I88
atp197
s(I196
g147
tp198
(g27
(lp199
I132
atp200
s(I190
g25
tp201
(g32
(lp202
I134
atp203
s(I153
g132
tp204
(g3
(lp205
I21
atp206
s(I196
V3_26
p207
tp208
(g27
(lp209
I133
atp210
s(I196
V1_12
p211
tp212
(g27
(lp213
I112
atp214
s(I169
V0_6
p215
tp216
(g18
(lp217
I95
atp218
s(I153
V5_41
p219
tp220
(g3
(lp221
I41
atp222
s(I197
V9_57
p223
tp224
(g8
(lp225
I103
atp226
s(I196
V1_13
p227
tp228
(g27
(lp229
I113
atp230
s(I198
V7_51
p231
tp232
((lp233
I198
a(lp234
I109
atp235
s(I197
V9_60
p236
tp237
(g8
(lp238
I108
atp239
s(I172
g132
tp240
(g13
(lp241
I105
atp242
s(I190
V6_48
p243
tp244
(g32
(lp245
I152
atp246
s(I196
V1_14
p247
tp248
(g27
(lp249
I122
atp250
s(I196
V1_10
p251
tp252
(g27
(lp253
I110
atp254
s(I196
V1_9
p255
tp256
(g27
(lp257
I107
atp258
s(I169
V4_28
p259
tp260
(g18
(lp261
I127
atp262
s(I194
V3_22
p263
tp264
(g102
(lp265
I124
atp266
s(I196
V1_11
p267
tp268
(g27
(lp269
I111
atp270
s(I169
V0_1
p271
tp272
(g18
(lp273
I87
atp274
s(I169
V4_34
p275
tp276
(g18
(lp277
I142
atp278
s(I153
V5_40
p279
tp280
(g3
(lp281
I40
atp282
s(I190
g207
tp283
(g32
(lp284
I140
atp285
s(I169
V4_29
p286
tp287
(g18
(lp288
I128
atp289
s(I199
V8_52
p290
tp291
((lp292
I199
aI197
a(lp293
I141
atp294
s(I198
V7_50
p295
tp296
(g233
(lp297
I97
atp298
s(I196
g263
tp299
(g27
(lp300
I118
atp301
s.