(dp0
(I153
V5_37
p1
tp2
((lp3
I153
a(lp4
I37
atp5
s(I197
V9_63
p6
tp7
((lp8
I197
a(lp9
I121
atp10
s(I172
V2_20
p11
tp12
((lp13
I172
a(lp14
I152
atp15
s(I169
V0_5
p16
tp17
((lp18
I169
a(lp19
I92
atp20
s(I197
V9_56
p21
tp22
(g8
(lp23
I104
atp24
s(I196
V3_25
p25
tp26
((lp27
I196
a(lp28
I140
atp29
s(I190
V3_23
p30
tp31
((lp32
I190
a(lp33
I135
atp34
s(I190
V6_47
p35
tp36
(g32
(lp37
I117
atp38
s(I197
V9_59
p39
tp40
(g8
(lp41
I106
atp42
s(I169
V4_31
p43
tp44
(g18
(lp45
I99
atp46
s(I169
V0_0
p47
tp48
(g18
(lp49
I78
atp50
s(I187
V5_36
p51
tp52
((lp53
I187
aI112
aI100
aI74
aI153
a(lp54
I36
atp55
s(I195
V2_21
p56
tp57
((lp58
I195
a(lp59
I149
atp60
s(I153
g11
tp61
(g3
(lp62
I20
atp63
s(I190
V6_46
p64
tp65
(g32
(lp66
I119
atp67
s(I169
V0_6
p68
tp69
(g18
(lp70
I93
atp71
s(I197
V9_62
p72
tp73
(g8
(lp74
I120
atp75
s(I169
V0_4
p76
tp77
(g18
(lp78
I85
atp79
s(I196
V1_16
p80
tp81
(g27
(lp82
I129
atp83
s(I169
V4_30
p84
tp85
(g18
(lp86
I97
atp87
s(I199
V8_54
p88
tp89
((lp90
I199
a(lp91
I86
atp92
s(I190
V6_45
p93
tp94
(g32
(lp95
I116
atp96
s(I194
V6_42
p97
tp98
((lp99
I194
aI190
a(lp100
I108
atp101
s(I153
V5_38
p102
tp103
(g3
(lp104
I38
atp105
s(I172
V2_19
p106
tp107
(g13
(lp108
I151
atp109
s(I197
V9_58
p110
tp111
(g8
(lp112
I105
atp113
s(I169
V0_8
p114
tp115
(g18
(lp116
I90
atp117
s(I194
V3_22
p118
tp119
(g99
(lp120
I133
atp121
s(I190
V6_44
p122
tp123
(g32
(lp124
I113
atp125
s(I169
V0_3
p126
tp127
(g18
(lp128
I91
atp129
s(I196
g30
tp130
(g27
(lp131
I141
atp132
s(I153
g56
tp133
(g3
(lp134
I21
atp135
s(I197
V9_57
p136
tp137
(g8
(lp138
I110
atp139
s(I196
V3_26
p140
tp141
(g27
(lp142
I144
atp143
s(I190
V6_43
p144
tp145
(g32
(lp146
I112
atp147
s(I169
V4_33
p148
tp149
(g18
(lp150
I103
atp151
s(I195
g11
tp152
(g58
(lp153
I148
atp154
s(I190
V3_24
p155
tp156
(g32
(lp157
I136
atp158
s(I169
V4_28
p159
tp160
(g18
(lp161
I88
atp162
s(I178
g106
tp163
((lp164
I178
aI107
aI7
aI74
aI153
a(lp165
I19
atp166
s(I196
V1_18
p167
tp168
(g27
(lp169
I128
atp170
s(I153
V5_39
p171
tp172
(g3
(lp173
I39
atp174
s(I197
V9_61
p175
tp176
(g8
(lp177
I107
atp178
s(I169
V4_27
p179
tp180
(g18
(lp181
I82
atp182
s(I190
V6_49
p183
tp184
(g32
(lp185
I115
atp186
s(I169
V0_1
p187
tp188
(g18
(lp189
I83
atp190
s(I199
V8_53
p191
tp192
(g90
(lp193
I79
atp194
s(I169
V0_2
p195
tp196
(g18
(lp197
I84
atp198
s(I196
V1_15
p199
tp200
(g27
(lp201
I127
atp202
s(I190
g25
tp203
(g32
(lp204
I134
atp205
s(I196
V1_9
p206
tp207
(g27
(lp208
I122
atp209
s(I197
V9_55
p210
tp211
(g8
(lp212
I100
atp213
s(I169
V4_32
p214
tp215
(g18
(lp216
I101
atp217
s(I196
g155
tp218
(g27
(lp219
I143
atp220
s(I153
V5_41
p221
tp222
(g3
(lp223
I41
atp224
s(I169
V4_29
p225
tp226
(g18
(lp227
I89
atp228
s(I195
g106
tp229
(g58
(lp230
I147
atp231
s(I196
V1_13
p232
tp233
(g27
(lp234
I126
atp235
s(I198
V7_51
p236
tp237
((lp238
I198
a(lp239
I146
atp240
s(I197
V9_60
p241
tp242
(g8
(lp243
I114
atp244
s(I172
g56
tp245
(g13
(lp246
I153
atp247
s(I190
V6_48
p248
tp249
(g32
(lp250
I118
atp251
s(I199
V8_52
p252
tp253
(g90
(lp254
I77
atp255
s(I196
V1_12
p256
tp257
(g27
(lp258
I125
atp259
s(I196
V1_10
p260
tp261
(g27
(lp262
I123
atp263
s(I169
V0_7
p264
tp265
(g18
(lp266
I94
atp267
s(I196
V1_17
p268
tp269
(g27
(lp270
I131
atp271
s(I196
V1_11
p272
tp273
(g27
(lp274
I124
atp275
s(I169
V4_35
p276
tp277
(g18
(lp278
I98
atp279
s(I169
V4_34
p280
tp281
(g18
(lp282
I109
atp283
s(I153
V5_40
p284
tp285
(g3
(lp286
I40
atp287
s(I190
g140
tp288
(g32
(lp289
I137
atp290
s(I196
V1_14
p291
tp292
(g27
(lp293
I130
atp294
s(I198
V7_50
p295
tp296
(g238
(lp297
I142
atp298
s(I196
g118
tp299
(g27
(lp300
I138
atp301
s.