(dp0
(I153
V5_37
p1
tp2
((lp3
I153
a(lp4
I37
atp5
s(I197
V9_63
p6
tp7
((lp8
I197
a(lp9
I112
atp10
s(I172
V2_20
p11
tp12
((lp13
I172
a(lp14
I106
atp15
s(I190
V6_47
p16
tp17
((lp18
I190
a(lp19
I100
atp20
s(I195
g11
tp21
((lp22
I195
a(lp23
I109
atp24
s(I196
V3_26
p25
tp26
((lp27
I196
a(lp28
I137
atp29
s(I190
V3_23
p30
tp31
(g18
(lp32
I84
atp33
s(I197
V9_62
p34
tp35
(g8
(lp36
I111
atp37
s(I169
V0_5
p38
tp39
((lp40
I169
a(lp41
I140
atp42
s(I194
V3_22
p43
tp44
((lp45
I194
aI190
a(lp46
I80
atp47
s(I169
V0_0
p48
tp49
(g40
(lp50
I125
atp51
s(I187
V5_36
p52
tp53
((lp54
I187
aI112
aI100
aI74
aI153
a(lp55
I36
atp56
s(I195
V2_21
p57
tp58
(g22
(lp59
I110
atp60
s(I169
V4_31
p61
tp62
(g40
(lp63
I128
atp64
s(I196
V1_11
p65
tp66
(g27
(lp67
I146
atp68
s(I169
V0_4
p69
tp70
(g40
(lp71
I134
atp72
s(I169
V4_32
p73
tp74
(g40
(lp75
I131
atp76
s(I172
V2_19
p77
tp78
(g13
(lp79
I104
atp80
s(I190
V6_46
p81
tp82
(g18
(lp83
I102
atp84
s(I196
V1_16
p85
tp86
(g27
(lp87
I151
atp88
s(I169
V4_30
p89
tp90
(g40
(lp91
I126
atp92
s(I197
V9_55
p93
tp94
(g8
(lp95
I91
atp96
s(I195
g77
tp97
(g22
(lp98
I108
atp99
s(I169
V0_3
p100
tp101
(g40
(lp102
I139
atp103
s(I194
V6_42
p104
tp105
(g45
(lp106
I85
atp107
s(I153
V5_38
p108
tp109
(g3
(lp110
I38
atp111
s(I197
V9_58
p112
tp113
(g8
(lp114
I95
atp115
s(I169
V0_8
p116
tp117
(g40
(lp118
I138
atp119
s(I169
V0_6
p120
tp121
(g40
(lp122
I141
atp123
s(I197
V8_53
p124
tp125
(g8
(lp126
I116
atp127
s(I196
g30
tp128
(g27
(lp129
I130
atp130
s(I190
V3_24
p131
tp132
(g18
(lp133
I89
atp134
s(I153
g11
tp135
(g3
(lp136
I20
atp137
s(I196
V1_10
p138
tp139
(g27
(lp140
I145
atp141
s(I169
V0_1
p142
tp143
(g40
(lp144
I132
atp145
s(I190
V6_45
p146
tp147
(g18
(lp148
I99
atp149
s(I197
V9_56
p150
tp151
(g8
(lp152
I94
atp153
s(I178
g77
tp154
((lp155
I178
aI107
aI7
aI74
aI153
a(lp156
I19
atp157
s(I196
V1_18
p158
tp159
(g27
(lp160
I150
atp161
s(I153
V5_39
p162
tp163
(g3
(lp164
I39
atp165
s(I197
V9_61
p166
tp167
(g8
(lp168
I97
atp169
s(I197
V9_59
p170
tp171
(g8
(lp172
I96
atp173
s(I190
V6_49
p174
tp175
(g18
(lp176
I98
atp177
s(I169
V4_35
p178
tp179
(g40
(lp180
I127
atp181
s(I169
V4_27
p182
tp183
(g40
(lp184
I119
atp185
s(I196
V1_15
p186
tp187
(g27
(lp188
I149
atp189
s(I169
V0_2
p190
tp191
(g40
(lp192
I133
atp193
s(I196
g131
tp194
(g27
(lp195
I136
atp196
s(I190
V3_25
p197
tp198
(g18
(lp199
I83
atp200
s(I153
g57
tp201
(g3
(lp202
I21
atp203
s(I196
V1_12
p204
tp205
(g27
(lp206
I147
atp207
s(I190
V6_44
p208
tp209
(g18
(lp210
I93
atp211
s(I153
V5_41
p212
tp213
(g3
(lp214
I41
atp215
s(I197
V9_57
p216
tp217
(g8
(lp218
I103
atp219
s(I196
V1_13
p220
tp221
(g27
(lp222
I148
atp223
s(I198
V7_51
p224
tp225
((lp226
I198
a(lp227
I115
atp228
s(I197
V9_60
p229
tp230
(g8
(lp231
I105
atp232
s(I172
g57
tp233
(g13
(lp234
I107
atp235
s(I190
V6_48
p236
tp237
(g18
(lp238
I101
atp239
s(I199
V8_52
p240
tp241
((lp242
I199
aI197
a(lp243
I114
atp244
s(I196
g197
tp245
(g27
(lp246
I129
atp247
s(I169
V4_33
p248
tp249
(g40
(lp250
I135
atp251
s(I169
V0_7
p252
tp253
(g40
(lp254
I142
atp255
s(I169
V4_28
p256
tp257
(g40
(lp258
I122
atp259
s(I196
V1_17
p260
tp261
(g27
(lp262
I153
atp263
s(I196
V1_9
p264
tp265
(g27
(lp266
I144
atp267
s(I197
V8_54
p268
tp269
(g8
(lp270
I117
atp271
s(I190
V6_43
p272
tp273
(g18
(lp274
I92
atp275
s(I169
V4_34
p276
tp277
(g40
(lp278
I143
atp279
s(I153
V5_40
p280
tp281
(g3
(lp282
I40
atp283
s(I190
g25
tp284
(g18
(lp285
I90
atp286
s(I169
V4_29
p287
tp288
(g40
(lp289
I123
atp290
s(I196
V1_14
p291
tp292
(g27
(lp293
I152
atp294
s(I198
V7_50
p295
tp296
(g226
(lp297
I113
atp298
s(I196
g43
tp299
(g27
(lp300
I124
atp301
s.