(dp0
I0
(lp1
sI1
(lp2
sI2
(lp3
sI3
(lp4
sI4
(lp5
sI5
(lp6
sI6
(lp7
sI7
(lp8
sI8
(lp9
sI9
(lp10
sI10
(lp11
sI11
(lp12
sI12
(lp13
sI13
(lp14
sI14
(lp15
sI15
(lp16
sI16
(lp17
sI17
(lp18
sI18
(lp19
sI19
(lp20
sI20
(lp21
sI21
(lp22
sI22
(lp23
sI23
(lp24
sI24
(lp25
sI25
(lp26
sI26
(lp27
sI27
(lp28
sI28
(lp29
sI29
(lp30
sI30
(lp31
sI31
(lp32
sI32
(lp33
sI33
(lp34
sI34
(lp35
sI35
(lp36
sI36
(lp37
sI37
(lp38
sI38
(lp39
sI39
(lp40
sI40
(lp41
sI41
(lp42
sI42
(lp43
sI43
(lp44
sI44
(lp45
sI45
(lp46
sI46
(lp47
sI47
(lp48
sI48
(lp49
sI49
(lp50
sI50
(lp51
sI51
(lp52
sI52
(lp53
sI53
(lp54
sI54
(lp55
sI55
(lp56
sI56
(lp57
sI57
(lp58
sI58
(lp59
sI59
(lp60
sI60
(lp61
sI61
(lp62
sI62
(lp63
sI63
(lp64
sI64
(lp65
sI65
(lp66
sI66
(lp67
sI67
(lp68
sI68
(lp69
sI69
(lp70
sI70
(lp71
sI71
(lp72
sI72
(lp73
sI73
(lp74
sI74
(lp75
sI75
(lp76
sI76
(lp77
sI77
(lp78
sI78
(lp79
sI79
(lp80
sI80
(lp81
sI81
(lp82
sI82
(lp83
sI83
(lp84
sI84
(lp85
sI85
(lp86
sI86
(lp87
sI87
(lp88
sI88
(lp89
sI89
(lp90
sI90
(lp91
sI91
(lp92
sI92
(lp93
sI93
(lp94
sI94
(lp95
sI95
(lp96
sI96
(lp97
sI97
(lp98
sI98
(lp99
sI99
(lp100
sI100
(lp101
sI101
(lp102
V8#8_53
p103
asI102
(lp104
V8#8_54
p105
asI103
(lp106
V0#0_4
p107
asI104
(lp108
V9#9_59
p109
asI105
(lp110
V4#4_29
p111
asI106
(lp112
V3#3_25
p113
asI107
(lp114
V2#2_19
p115
asI108
(lp116
V2#2_20
p117
asI109
(lp118
V9#9_61
p119
asI110
(lp120
V3#3_22
p121
asI111
(lp122
V3#3_25
p123
asI112
(lp124
V9#9_58
p125
asI113
(lp126
V4#4_27
p127
asI114
(lp128
V4#4_28
p129
asI115
(lp130
V4#4_30
p131
asI116
(lp132
V4#4_33
p133
asI117
(lp134
V0#0_8
p135
asI118
(lp136
V5#5_37
p137
asI119
(lp138
V2#2_21
p139
asI120
(lp140
sI121
(lp141
V6#6_46
p142
asI122
(lp143
V3#3_26
p144
asI123
(lp145
V0#0_2
p146
asI124
(lp147
sI125
(lp148
V6#6_44
p149
asI126
(lp150
V9#9_60
p151
asI127
(lp152
V9#9_62
p153
asI128
(lp154
V5#5_38
p155
asI129
(lp156
V0#0_5
p157
asI130
(lp158
sI131
(lp159
sI132
(lp160
V5#5_40
p161
asI133
(lp162
sI134
(lp163
sI135
(lp164
sI136
(lp165
V9#9_63
p166
asI137
(lp167
sI138
(lp168
V3#3_23
p169
asI139
(lp170
V3#3_24
p171
asI140
(lp172
sI141
(lp173
sI142
(lp174
sI143
(lp175
V6#6_47
p176
asI144
(lp177
V7#7_51
p178
asI145
(lp179
sI146
(lp180
V1#1_17
p181
asI147
(lp182
V0#0_3
p183
asI148
(lp184
sI149
(lp185
sI150
(lp186
sI151
(lp187
V0#0_1
p188
asI152
(lp189
V1#1_9
p190
asI153
(lp191
V1#1_18
p192
aV1#1_13
p193
aV1#1_12
p194
aV1#1_11
p195
aV1#1_10
p196
aV1#1_17
p197
aV1#1_16
p198
aV1#1_15
p199
aV1#1_14
p200
aV1#1_9
p201
aV0#0_8
p202
aV0#0_6
p203
aV0#0_7
p204
aV0#0_4
p205
aV0#0_5
p206
aV0#0_2
p207
aV0#0_3
p208
aV0#0_0
p209
aV0#0_1
p210
aV3#3_24
p211
aV3#3_25
p212
aV3#3_26
p213
aV3#3_22
p214
aV3#3_23
p215
aV2#2_19
p216
aV2#2_21
p217
aV2#2_20
p218
aV5#5_39
p219
aV5#5_38
p220
aV5#5_40
p221
aV5#5_41
p222
aV5#5_37
p223
aV5#5_36
p224
aV4#4_27
p225
aV4#4_29
p226
aV4#4_28
p227
aV4#4_32
p228
aV4#4_33
p229
aV4#4_30
p230
aV4#4_31
p231
aV4#4_34
p232
aV4#4_35
p233
aV7#7_51
p234
aV7#7_50
p235
aV6#6_49
p236
aV6#6_48
p237
aV6#6_45
p238
aV6#6_44
p239
aV6#6_47
p240
aV6#6_46
p241
aV6#6_43
p242
aV6#6_42
p243
aV9#9_59
p244
aV9#9_58
p245
aV9#9_57
p246
aV9#9_56
p247
aV9#9_55
p248
aV9#9_61
p249
aV9#9_62
p250
aV9#9_63
p251
aV9#9_60
p252
aV8#8_54
p253
aV8#8_52
p254
aV8#8_53
p255
asI154
(lp256
V1#1_16
p257
asI155
(lp258
V6#6_49
p259
asI156
(lp260
sI157
(lp261
V4#4_31
p262
asI158
(lp263
V4#4_32
p264
asI159
(lp265
sI160
(lp266
V1#1_14
p267
asI161
(lp268
V2#2_20
p269
asI162
(lp270
sI163
(lp271
sI164
(lp272
V3#3_23
p273
asI165
(lp274
V3#3_24
p275
asI166
(lp276
V3#3_26
p277
asI167
(lp278
V4#4_35
p279
asI168
(lp280
sI169
(lp281
V4#None
p282
aV0#None
p283
asI170
(lp284
V5#5_39
p285
asI171
(lp286
V2#2_21
p287
asI172
(lp288
V2#None
p289
asI173
(lp290
V2#2_19
p291
asI174
(lp292
V9#9_55
p293
asI175
(lp294
V9#9_56
p295
asI176
(lp296
V9#9_57
p297
asI177
(lp298
V0#0_6
p299
asI178
(lp300
V2#None
p301
asI179
(lp302
V2#2_19
p303
asI180
(lp304
V2#2_20
p305
asI181
(lp306
V6#6_45
p307
asI182
(lp308
sI183
(lp309
V6#6_48
p310
asI184
(lp311
sI185
(lp312
sI186
(lp313
V3#3_22
p314
asI187
(lp315
V5#None
p316
asI188
(lp317
V5#5_36
p318
asI189
(lp319
V5#5_41
p320
asI190
(lp321
V7#7_50
p322
asI191
(lp323
V6#6_42
p324
asI192
(lp325
V6#6_43
p326
asI193
(lp327
V0#0_0
p328
asI194
(lp329
V6#None
p330
aV3#None
p331
asI195
(lp332
V2#None
p333
asI196
(lp334
V3#None
p335
aV1#None
p336
asI197
(lp337
V9#None
p338
asI198
(lp339
V7#None
p340
asI199
(lp341
V8#None
p342
as.