(dp0
(I113
V4_29
p1
tp2
((lp3
I113
aI76
aI98
aI7
aI105
a(lp4
I98
atp5
s(I193
V0_4
p6
tp7
((lp8
I193
aI177
aI85
aI6
aI0
aI103
a(lp9
I130
atp10
s(I173
V2_21
p11
tp12
((lp13
I173
aI110
aI4
aI7
aI81
aI119
a(lp14
I119
atp15
s(I191
V6_44
p16
tp17
((lp18
I191
aI106
aI104
aI125
a(lp19
I147
atp20
s(I151
V0_8
p21
tp22
((lp23
I151
aI112
aI3
aI109
aI117
a(lp24
I139
atp25
s(I192
V6_45
p26
tp27
((lp28
I192
aI169
aI112
aI3
aI104
aI181
a(lp29
I151
atp30
s(I174
V9_58
p31
tp32
((lp33
I174
aI111
aI100
aI112
a(lp34
I100
atp35
s(I151
V0_6
p36
tp37
((lp38
I151
aI112
aI3
aI6
aI85
aI177
a(lp39
I142
atp40
s(I105
V4_31
p41
tp42
((lp43
I105
aI7
aI5
aI91
aI157
a(lp44
I117
atp45
s(I126
V9_62
p46
tp47
((lp48
I126
aI89
aI70
aI109
aI127
a(lp49
I137
atp50
s(I116
V4_34
p51
tp52
((lp53
I116
aI112
aI105
aI74
aI153
a(lp54
I29
atp55
s(I194
V3_22
p56
tp57
((lp58
I194
aI190
aI109
aI0
aI110
a(lp59
I90
atp60
s(I169
V0_0
p61
tp62
((lp63
I169
aI112
aI3
aI6
aI85
aI177
aI193
a(lp64
I89
atp65
s(I196
g56
tp66
((lp67
I196
aI185
aI112
aI100
aI186
a(lp68
I82
atp69
s(I186
V3_25
p70
tp71
((lp72
I186
aI99
aI15
aI106
a(lp73
I103
atp74
s(I190
V7_51
p75
tp76
((lp77
I190
aI109
aI0
aI103
aI144
a(lp78
I145
atp79
s(I152
V1_10
p80
tp81
((lp82
I152
aI111
aI105
aI74
aI153
a(lp83
I10
atp84
s(I138
V3_26
p85
tp86
((lp87
I138
aI80
aI112
aI105
aI166
a(lp88
I115
atp89
s(I191
V6_43
p90
tp91
((lp92
I191
aI106
aI112
aI169
aI192
a(lp93
I146
atp94
s(I172
V2_19
p95
tp96
((lp97
I172
aI64
aI105
aI112
aI110
aI173
a(lp98
I95
atp99
s(I193
V0_1
p100
tp101
((lp102
I193
aI177
aI85
aI6
aI3
aI112
aI151
a(lp103
I128
atp104
s(I188
V5_38
p105
tp106
((lp107
I188
aI109
aI106
aI128
a(lp108
I111
atp109
s(I125
V6_48
p110
tp111
((lp112
I125
aI104
aI3
aI2
aI107
aI183
a(lp113
I148
atp114
s(I110
g70
tp115
((lp116
I110
aI5
aI111
a(lp117
I106
atp118
s(I197
V9_55
p119
tp120
((lp121
I197
aI173
aI110
aI5
aI108
aI174
a(lp122
I80
atp123
s(I195
g95
tp124
((lp125
I195
aI175
aI106
aI15
aI7
aI107
a(lp126
I94
atp127
s(I153
V1_16
p128
tp129
((lp130
I153
aI74
aI105
aI99
aI77
aI154
a(lp131
I131
atp132
s(I194
V6_42
p133
tp134
((lp135
I194
aI190
aI109
aI106
aI191
a(lp136
I143
atp137
s(I138
V3_24
p138
tp139
((lp140
I138
aI80
aI1
aI2
aI107
aI139
a(lp141
I114
atp142
s(I157
V4_32
p143
tp144
((lp145
I157
aI91
aI6
aI15
aI59
aI158
a(lp146
I133
atp147
s(I164
g138
tp148
((lp149
I164
aI102
aI1
aI80
aI165
a(lp150
I123
atp151
s(I179
V2_20
p152
tp153
((lp154
I179
aI92
aI180
a(lp155
I126
atp156
s(I152
V1_18
p157
tp158
(g82
(lp159
I18
atp160
s(I175
V9_57
p161
tp162
((lp163
I175
aI106
aI15
aI99
aI176
a(lp164
I112
atp165
s(I118
V5_40
p166
tp167
((lp168
I118
aI112
aI4
aI97
aI132
a(lp169
I134
atp170
s(I105
V4_35
p171
tp172
((lp173
I105
aI93
aI6
aI85
aI167
a(lp174
I116
atp175
s(I174
V9_56
p176
tp177
((lp178
I174
aI108
aI109
aI106
aI175
a(lp179
I99
atp180
s(I196
V1_9
p181
tp182
((lp183
I196
aI185
aI112
aI100
aI111
aI152
a(lp184
I88
atp185
s(I114
V4_30
p186
tp187
((lp188
I114
aI101
aI96
aI3
aI109
aI115
a(lp189
I120
atp190
s(I174
V9_61
p191
tp192
((lp193
I174
aI108
aI109
a(lp194
I102
atp195
s(I152
V1_13
p196
tp197
(g82
(lp198
I13
atp199
s(I178
g95
tp200
((lp201
I178
aI107
aI2
aI92
aI179
a(lp202
I108
atp203
s(I193
V0_2
p204
tp205
((lp206
I193
aI177
aI85
aI6
aI3
aI94
aI123
a(lp207
I129
atp208
s(I169
V4_27
p209
tp210
((lp211
I169
aI112
aI3
aI76
aI113
a(lp212
I84
atp213
s(I188
V5_37
p214
tp215
((lp216
I188
aI109
aI3
aI112
aI118
a(lp217
I110
atp218
s(I126
V9_63
p219
tp220
((lp221
I126
aI89
aI70
aI4
aI82
aI136
a(lp222
I138
atp223
s(I151
V0_3
p224
tp225
((lp226
I151
aI112
aI100
aI147
a(lp227
I140
atp228
s(I104
V9_60
p229
tp230
((lp231
I104
aI3
aI112
aI89
aI126
a(lp232
I125
atp233
s(I179
g11
tp234
((lp235
I179
aI111
aI100
aI74
aI153
a(lp236
I21
atp237
s(I153
V8_53
p238
tp239
((lp240
I153
aI74
aI100
aI4
aI101
a(lp241
I96
atp242
s(I118
V5_39
p243
tp244
((lp245
I118
aI112
aI169
aI192
aI170
a(lp246
I135
atp247
s(I153
V1_17
p248
tp249
((lp250
I153
aI74
aI100
aI112
aI146
a(lp251
I136
atp252
s(I151
V0_5
p253
tp254
((lp255
I151
aI112
aI100
aI111
aI129
a(lp256
I141
atp257
s(I107
g152
tp258
((lp259
I107
aI7
aI108
a(lp260
I121
atp261
s(I110
V3_23
p262
tp263
((lp264
I110
aI112
aI80
aI138
a(lp265
I107
atp266
s(I125
V6_46
p267
tp268
((lp269
I125
aI104
aI3
aI1
aI102
aI121
a(lp270
I149
atp271
s(I152
V1_12
p272
tp273
(g82
(lp274
I12
atp275
s(I101
V8_54
p276
tp277
((lp278
I101
aI96
aI1
aI102
a(lp279
I113
atp280
s(I192
V6_49
p281
tp282
((lp283
I192
aI45
aI6
aI1
aI96
aI155
a(lp284
I150
atp285
s(I186
g262
tp286
((lp287
I186
aI99
aI7
aI102
aI164
a(lp288
I104
atp289
s(I164
g85
tp290
((lp291
I164
aI102
aI7
aI108
aI122
a(lp292
I124
atp293
s(I199
V8_52
p294
tp295
((lp296
I199
aI197
aI173
aI110
aI112
aI105
aI74
aI153
a(lp297
I52
atp298
s(I173
g152
tp299
((lp300
I173
aI110
aI5
aI111
aI161
a(lp301
I118
atp302
s(I188
V5_41
p303
tp304
((lp305
I188
aI109
aI106
aI189
a(lp306
I109
atp307
s(I192
V6_47
p308
tp309
((lp310
I192
aI45
aI6
aI2
aI83
aI143
a(lp311
I152
atp312
s(I174
V9_59
p313
tp314
((lp315
I174
aI108
aI109
aI104
a(lp316
I101
atp317
s(I152
V1_15
p318
tp319
(g82
(lp320
I15
atp321
s(I115
V4_33
p322
tp323
((lp324
I115
aI109
aI3
aI112
aI116
a(lp325
I144
atp326
s(I107
g11
tp327
((lp328
I107
aI171
a(lp329
I122
atp330
s(I153
V1_14
p331
tp332
((lp333
I153
aI74
aI105
aI112
aI110
aI160
a(lp334
I132
atp335
s(I113
V4_28
p336
tp337
((lp338
I113
aI76
aI98
aI110
aI101
aI114
a(lp339
I97
atp340
s(I151
V0_7
p341
tp342
((lp343
I151
aI112
aI105
aI74
aI153
a(lp344
I7
atp345
s(I152
V1_11
p346
tp347
(g82
(lp348
I11
atp349
s(I198
V7_50
p350
tp351
((lp352
I198
aI196
aI185
aI106
aI109
aI190
a(lp353
I127
atp354
s(I187
V5_36
p355
tp356
((lp357
I187
aI112
aI3
aI109
aI188
a(lp358
I92
atp359
s.