(dp0
(I153
V4_32
p1
tp2
((lp3
I153
aI74
aI100
aI0
aI103
a(lp4
I131
atp5
s(I113
V4_29
p6
tp7
((lp8
I113
aI76
aI3
aI1
aI111
a(lp9
I98
atp10
s(I193
V0_4
p11
tp12
((lp13
I193
aI177
aI85
aI6
aI3
aI94
aI123
a(lp14
I130
atp15
s(I173
V2_21
p16
tp17
((lp18
I173
aI110
aI4
aI7
aI81
aI119
a(lp19
I121
atp20
s(I109
V0_7
p21
tp22
((lp23
I109
aI79
aI111
aI129
a(lp24
I144
atp25
s(I194
V6_42
p26
tp27
((lp28
I194
aI190
aI109
aI3
aI96
aI101
aI135
a(lp29
I145
atp30
s(I143
V6_48
p31
tp32
((lp33
I143
aI83
aI2
aI6
aI85
aI177
a(lp34
I153
atp35
s(I174
V9_58
p36
tp37
((lp38
I174
aI108
aI109
aI104
a(lp39
I100
atp40
s(I130
V9_60
p41
tp42
((lp43
I130
aI67
aI4
aI82
aI136
a(lp44
I122
atp45
s(I185
V6_49
p46
tp47
((lp48
I185
aI112
aI100
aI147
a(lp49
I150
atp50
s(I135
V6_43
p51
tp52
((lp53
I135
aI101
aI4
aI112
aI185
a(lp54
I148
atp55
s(I194
V3_22
p56
tp57
((lp58
I194
aI190
aI109
aI0
aI110
a(lp59
I90
atp60
s(I169
V0_0
p61
tp62
((lp63
I169
aI112
aI3
aI6
aI85
aI177
aI193
a(lp64
I89
atp65
s(I196
g56
tp66
((lp67
I196
aI185
aI112
aI100
aI186
a(lp68
I82
atp69
s(I186
V3_25
p70
tp71
((lp72
I186
aI99
aI15
aI106
a(lp73
I103
atp74
s(I190
V7_51
p75
tp76
((lp77
I190
aI109
aI3
aI112
aI118
a(lp78
I147
atp79
s(I152
V1_10
p80
tp81
((lp82
I152
aI111
aI162
a(lp83
I109
atp84
s(I167
V4_33
p85
tp86
((lp87
I167
aI85
aI15
aI108
aI168
a(lp88
I132
atp89
s(I102
V3_24
p90
tp91
((lp92
I102
aI7
aI108
aI122
a(lp93
I115
atp94
s(I172
V2_19
p95
tp96
((lp97
I172
aI64
aI105
aI112
aI110
aI173
a(lp98
I95
atp99
s(I193
V0_1
p100
tp101
((lp102
I193
aI177
aI85
aI6
aI0
aI109
a(lp103
I128
atp104
s(I188
V5_38
p105
tp106
((lp107
I188
aI92
aI5
aI89
aI126
a(lp108
I114
atp109
s(I185
V6_47
p110
tp111
((lp112
I185
aI106
aI109
aI127
a(lp113
I152
atp114
s(I110
g70
tp115
((lp116
I110
aI112
aI80
aI138
a(lp117
I106
atp118
s(I197
V9_55
p119
tp120
((lp121
I197
aI173
aI110
aI5
aI108
aI174
a(lp122
I80
atp123
s(I195
g95
tp124
((lp125
I195
aI175
aI106
aI15
aI7
aI107
a(lp126
I94
atp127
s(I109
V0_6
p128
tp129
((lp130
I109
aI0
aI110
aI141
a(lp131
I143
atp132
s(I153
V1_16
p133
tp134
((lp135
I153
aI74
aI105
aI112
aI110
aI160
a(lp136
I133
atp137
s(I109
V0_3
p138
tp139
((lp140
I109
aI106
aI191
a(lp141
I141
atp142
s(I164
g90
tp143
((lp144
I164
aI102
aI1
aI80
aI165
a(lp145
I125
atp146
s(I135
V6_44
p147
tp148
((lp149
I135
aI101
aI5
aI2
aI83
aI143
a(lp150
I149
atp151
s(I179
V2_20
p152
tp153
((lp154
I179
aI111
aI100
aI74
aI153
a(lp155
I20
atp156
s(I152
V1_18
p157
tp158
((lp159
I152
aI111
aI105
aI74
aI153
a(lp160
I18
atp161
s(I136
V9_62
p162
tp163
((lp164
I136
aI82
aI4
aI110
aI137
a(lp165
I136
atp166
s(I109
V0_8
p167
tp168
((lp169
I109
aI3
aI1
aI102
aI121
a(lp170
I140
atp171
s(I174
V9_56
p172
tp173
((lp174
I174
aI111
aI100
aI112
a(lp175
I99
atp176
s(I116
V5_39
p177
tp178
((lp179
I116
aI112
aI169
aI192
aI170
a(lp180
I139
atp181
s(I196
V1_9
p182
tp183
((lp184
I196
aI185
aI112
aI100
aI111
aI152
a(lp185
I88
atp186
s(I174
V9_61
p187
tp188
((lp189
I174
aI108
aI109
aI106
aI175
a(lp190
I102
atp191
s(I105
V4_30
p192
tp193
((lp194
I105
aI93
aI6
aI85
aI167
a(lp195
I117
atp196
s(I152
V1_13
p197
tp198
(g159
(lp199
I13
atp200
s(I178
g95
tp201
((lp202
I178
aI107
aI2
aI92
aI179
a(lp203
I108
atp204
s(I193
V0_2
p205
tp206
((lp207
I193
aI177
aI85
aI6
aI3
aI112
aI151
a(lp208
I129
atp209
s(I143
V6_46
p210
tp211
((lp212
I143
aI83
aI2
aI6
aI79
aI149
a(lp213
I154
atp214
s(I169
V4_27
p215
tp216
((lp217
I169
aI112
aI3
aI76
aI113
a(lp218
I84
atp219
s(I188
V5_37
p220
tp221
((lp222
I188
aI109
aI3
aI112
aI116
a(lp223
I113
atp224
s(I112
V9_57
p225
tp226
((lp227
I112
aI4
aI97
aI132
a(lp228
I111
atp229
s(I179
g16
tp230
(g154
(lp231
I21
atp232
s(I153
V8_53
p233
tp234
((lp235
I153
aI74
aI100
aI4
aI101
a(lp236
I96
atp237
s(I136
V9_63
p238
tp239
((lp240
I136
aI82
aI4
aI0
aI103
aI144
a(lp241
I137
atp242
s(I185
V6_45
p243
tp244
((lp245
I185
aI112
aI3
aI2
aI107
aI139
a(lp246
I151
atp247
s(I153
V1_17
p248
tp249
((lp250
I153
aI74
aI105
aI87
aI148
a(lp251
I135
atp252
s(I116
V5_40
p253
tp254
((lp255
I116
aI112
aI3
aI109
aI117
a(lp256
I138
atp257
s(I107
g152
tp258
((lp259
I107
aI171
a(lp260
I123
atp261
s(I109
V0_5
p262
tp263
((lp264
I109
aI106
aI189
a(lp265
I142
atp266
s(I110
V3_23
p267
tp268
((lp269
I110
aI61
aI102
a(lp270
I107
atp271
s(I152
V1_12
p272
tp273
(g159
(lp274
I12
atp275
s(I111
V4_31
p276
tp277
((lp278
I111
aI105
aI74
aI153
a(lp279
I35
atp280
s(I101
V8_54
p281
tp282
((lp283
I101
aI96
aI3
aI109
aI115
a(lp284
I119
atp285
s(I102
V3_26
p286
tp287
((lp288
I102
aI7
aI84
aI170
aI192
a(lp289
I116
atp290
s(I186
g267
tp291
((lp292
I186
aI99
aI7
aI102
aI164
a(lp293
I104
atp294
s(I164
g286
tp295
((lp296
I164
aI102
aI1
aI3
aI112
aI146
a(lp297
I126
atp298
s(I199
V8_52
p299
tp300
((lp301
I199
aI197
aI173
aI110
aI112
aI105
aI74
aI153
a(lp302
I52
atp303
s(I173
g152
tp304
((lp305
I173
aI110
aI5
aI111
aI161
a(lp306
I120
atp307
s(I188
V5_41
p308
tp309
((lp310
I188
aI109
aI108
a(lp311
I112
atp312
s(I111
V4_35
p313
tp314
((lp315
I111
aI105
aI99
aI163
a(lp316
I118
atp317
s(I174
V9_59
p318
tp319
((lp320
I174
aI108
aI67
aI130
a(lp321
I101
atp322
s(I152
V1_15
p323
tp324
(g159
(lp325
I15
atp326
s(I168
V4_34
p327
tp328
((lp329
I168
aI108
aI5
aI91
aI157
a(lp330
I146
atp331
s(I107
g16
tp332
((lp333
I107
aI2
aI3
aI104
aI181
a(lp334
I124
atp335
s(I153
V1_14
p336
tp337
((lp338
I153
aI74
aI100
aI4
aI101
aI114
a(lp339
I134
atp340
s(I113
V4_28
p341
tp342
((lp343
I113
aI76
aI98
aI7
aI105
a(lp344
I97
atp345
s(I152
V1_11
p346
tp347
((lp348
I152
aI111
aI179
aI92
aI180
a(lp349
I110
atp350
s(I198
V7_50
p351
tp352
((lp353
I198
aI196
aI185
aI106
aI109
aI190
a(lp354
I127
atp355
s(I187
V5_36
p356
tp357
((lp358
I187
aI112
aI3
aI109
aI188
a(lp359
I92
atp360
s.