(dp0
(cnumpy.core.multiarray
scalar
p1
(cnumpy
dtype
p2
(S'i8'
p3
I0
I1
tp4
Rp5
(I3
S'<'
p6
NNNI-1
I-1
I0
tp7
bS'm\x00\x00\x00\x00\x00\x00\x00'
p8
tp9
Rp10
V3_23
p11
tp12
((lp13
g10
aI127
a(lp14
I113
atp15
s(g1
(g5
S'\x85\x00\x00\x00\x00\x00\x00\x00'
p16
tp17
Rp18
V1_10
p19
tp20
((lp21
g18
aI106
aI189
a(lp22
I129
atp23
s(g1
(g5
S'v\x00\x00\x00\x00\x00\x00\x00'
p24
tp25
Rp26
V4_31
p27
tp28
((lp29
g26
aI112
aI146
a(lp30
I115
atp31
s(g1
(g5
S'\x89\x00\x00\x00\x00\x00\x00\x00'
p32
tp33
Rp34
V9_57
p35
tp36
((lp37
g34
aI110
aI0
ag1
(g5
S'g\x00\x00\x00\x00\x00\x00\x00'
p38
tp39
Rp40
a(lp41
I96
atp42
s(g1
(g5
S'\x7f\x00\x00\x00\x00\x00\x00\x00'
p43
tp44
Rp45
V3_24
p46
tp47
((lp48
g45
aI109
aI115
a(lp49
I124
atp50
s(g1
(g5
S'\xaa\x00\x00\x00\x00\x00\x00\x00'
p51
tp52
Rp53
V0_7
p54
tp55
((lp56
g53
aI84
aI7
aI108
ag1
(g5
S'\xae\x00\x00\x00\x00\x00\x00\x00'
p57
tp58
Rp59
a(lp60
I141
atp61
s(g1
(g5
S'k\x00\x00\x00\x00\x00\x00\x00'
p62
tp63
Rp64
V5_39
p65
tp66
((lp67
g64
aI183
a(lp68
I153
atp69
s(g1
(g5
S'\x86\x00\x00\x00\x00\x00\x00\x00'
p70
tp71
Rp72
V6_49
p73
tp74
((lp75
g72
aI108
aI50
a(lp76
I158
atp77
s(I194
V6_42
p78
tp79
((lp80
I194
aI190
a(lp81
I154
atp82
s(I194
V3_22
p83
tp84
((lp85
I194
aI190
aI109
a(lp86
I95
atp87
s(I169
V0_0
p88
tp89
((lp90
I169
aI192
a(lp91
I94
atp92
s(I187
V5_36
p93
tp94
((lp95
I187
aI94
ag1
(g5
S'{\x00\x00\x00\x00\x00\x00\x00'
p96
tp97
Rp98
a(lp99
I103
atp100
s(g1
(g5
S'\xad\x00\x00\x00\x00\x00\x00\x00'
p101
tp102
Rp103
V9_56
p104
tp105
((lp106
g103
aI110
ag1
(g5
S'\x89\x00\x00\x00\x00\x00\x00\x00'
p107
tp108
Rp109
a(lp110
I87
atp111
s(g53
V0_3
p112
tp113
((lp114
g53
aI84
aI7
aI89
ag1
(g5
S'~\x00\x00\x00\x00\x00\x00\x00'
p115
tp116
Rp117
a(lp118
I138
atp119
s(g1
(g5
S'\x8d\x00\x00\x00\x00\x00\x00\x00'
p120
tp121
Rp122
V9_60
p123
tp124
((lp125
g122
aI110
aI101
ag1
(g5
S'\x87\x00\x00\x00\x00\x00\x00\x00'
p126
tp127
Rp128
a(lp129
I107
atp130
s(g1
(g5
S'\xb5\x00\x00\x00\x00\x00\x00\x00'
p131
tp132
Rp133
V1_17
p134
tp135
((lp136
g133
aI104
ag1
(g5
S'\x03\x00\x00\x00\x00\x00\x00\x00'
p137
tp138
Rp139
a(lp140
I151
atp141
s(I172
V2_19
p142
tp143
((lp144
I172
aI90
aI104
ag1
(g5
S'\xb6\x00\x00\x00\x00\x00\x00\x00'
p145
tp146
Rp147
a(lp148
I109
atp149
s(g103
V9_61
p150
tp151
((lp152
g103
aI110
aI112
ag1
(g5
S'\x97\x00\x00\x00\x00\x00\x00\x00'
p153
tp154
Rp155
a(lp156
I90
atp157
s(g1
(g5
S'j\x00\x00\x00\x00\x00\x00\x00'
p158
tp159
Rp160
V2_20
p161
tp162
((lp163
g160
aI128
a(lp164
I117
atp165
s(g53
V0_8
p166
tp167
((lp168
g53
aI84
aI7
ag1
(g5
S'f\x00\x00\x00\x00\x00\x00\x00'
p169
tp170
Rp171
a(lp172
I137
atp173
s(I197
V9_55
p174
tp175
((lp176
I197
aI173
a(lp177
I81
atp178
s(I195
g142
tp179
((lp180
I195
aI175
aI106
a(lp181
I106
atp182
s(g1
(g5
S'\x87\x00\x00\x00\x00\x00\x00\x00'
p183
tp184
Rp185
V9_63
p186
tp187
((lp188
g185
aI101
aI15
a(lp189
I136
atp190
s(g64
V5_40
p191
tp192
((lp193
g64
aI139
a(lp194
I152
atp195
s(g1
(g5
S'p\x00\x00\x00\x00\x00\x00\x00'
p196
tp197
Rp198
V4_28
p199
tp200
((lp201
g198
aI100
a(lp202
I100
atp203
s(g1
(g5
S'\x83\x00\x00\x00\x00\x00\x00\x00'
p204
tp205
Rp206
V1_16
p207
tp208
((lp209
g206
aI112
aI100
ag1
(g5
S'\x93\x00\x00\x00\x00\x00\x00\x00'
p210
tp211
Rp212
a(lp213
I148
atp214
s(g1
(g5
S'{\x00\x00\x00\x00\x00\x00\x00'
p215
tp216
Rp217
V5_37
p218
tp219
((lp220
g217
aI94
aI3
aI2
ag1
(g5
S'k\x00\x00\x00\x00\x00\x00\x00'
p221
tp222
Rp223
a(lp224
I127
atp225
s(g18
V1_15
p226
tp227
((lp228
g18
aI106
aI75
a(lp229
I133
atp230
s(g10
V3_25
p231
tp232
((lp233
g10
aI117
a(lp234
I112
atp235
s(g1
(g5
S'\xa8\x00\x00\x00\x00\x00\x00\x00'
p236
tp237
Rp238
V2_21
p239
tp240
((lp241
g238
aI108
ag1
(g5
S'\x8c\x00\x00\x00\x00\x00\x00\x00'
p242
tp243
Rp244
a(lp245
I147
atp246
s(g238
g161
tp247
((lp248
g238
aI108
ag1
(g5
S'z\x00\x00\x00\x00\x00\x00\x00'
p249
tp250
Rp251
a(lp252
I146
atp253
s(g1
(g5
S'\xc0\x00\x00\x00\x00\x00\x00\x00'
p254
tp255
Rp256
V0_1
p257
tp258
((lp259
g256
aI170
a(lp260
I121
atp261
s(g1
(g5
S'\x92\x00\x00\x00\x00\x00\x00\x00'
p262
tp263
Rp264
V4_32
p265
tp266
((lp267
g264
aI112
aI80
ag1
(g5
S'\x8a\x00\x00\x00\x00\x00\x00\x00'
p268
tp269
Rp270
a(lp271
I142
atp272
s(g1
(g5
S'i\x00\x00\x00\x00\x00\x00\x00'
p273
tp274
Rp275
V3_26
p276
tp277
((lp278
g275
aI159
a(lp279
I111
atp280
s(g206
V1_14
p281
tp282
((lp283
g206
aI112
aI80
ag1
(g5
S'\xa5\x00\x00\x00\x00\x00\x00\x00'
p284
tp285
Rp286
a(lp287
I149
atp288
s(g18
V1_18
p289
tp290
((lp291
g18
aI106
aI15
aI101
ag1
(g5
S'\xab\x00\x00\x00\x00\x00\x00\x00'
p292
tp293
Rp294
a(lp295
I134
atp296
s(g185
V9_62
p297
tp298
((lp299
g185
aI101
aI96
ag1
(g5
S'\x9b\x00\x00\x00\x00\x00\x00\x00'
p300
tp301
Rp302
a(lp303
I135
atp304
s(I196
V1_9
p305
tp306
((lp307
I196
aI185
aI106
ag1
(g5
S'\x85\x00\x00\x00\x00\x00\x00\x00'
p308
tp309
Rp310
a(lp311
I93
atp312
s(g1
(g5
S'\xba\x00\x00\x00\x00\x00\x00\x00'
p313
tp314
Rp315
V4_33
p316
tp317
((lp318
g315
aI99
ag1
(g5
S'\xb0\x00\x00\x00\x00\x00\x00\x00'
p319
tp320
Rp321
a(lp322
I120
atp323
s(g72
V6_45
p324
tp325
((lp326
g72
aI108
aI15
aI71
ag1
(g5
S'\x8e\x00\x00\x00\x00\x00\x00\x00'
p327
tp328
Rp329
a(lp330
I159
atp331
s(g18
V1_12
p332
tp333
((lp334
g18
aI106
aI112
ag1
(g5
S'\x83\x00\x00\x00\x00\x00\x00\x00'
p335
tp336
Rp337
a(lp338
I131
atp339
s(I178
g142
tp340
((lp341
I178
aI107
ag1
(g5
S'\xa8\x00\x00\x00\x00\x00\x00\x00'
p342
tp343
Rp344
a(lp345
I119
atp346
s(g1
(g5
S'\xb9\x00\x00\x00\x00\x00\x00\x00'
p347
tp348
Rp349
g231
tp350
((lp351
g349
aI106
ag1
(g5
S'\xbf\x00\x00\x00\x00\x00\x00\x00'
p352
tp353
Rp354
a(lp355
I97
atp356
s(g45
g276
tp357
((lp358
g45
aI109
aI104
ag1
(g5
S'}\x00\x00\x00\x00\x00\x00\x00'
p359
tp360
Rp361
a(lp362
I125
atp363
s(I169
V4_27
p364
tp365
((lp366
I169
aI112
a(lp367
I85
atp368
s(g256
V0_4
p369
tp370
((lp371
g256
aI170
aI84
ag1
(g5
S'\xb4\x00\x00\x00\x00\x00\x00\x00'
p372
tp373
Rp374
a(lp375
I123
atp376
s(g1
(g5
S'\xbe\x00\x00\x00\x00\x00\x00\x00'
p377
tp378
Rp379
V6_43
p380
tp381
((lp382
g379
aI109
aI108
ag1
(g5
S'\x86\x00\x00\x00\x00\x00\x00\x00'
p383
tp384
Rp385
a(lp386
I155
atp387
s(g1
(g5
S'n\x00\x00\x00\x00\x00\x00\x00'
p388
tp389
Rp390
V8_53
p391
tp392
((lp393
g390
aI160
a(lp394
I99
atp395
s(g1
(g5
S'\xb6\x00\x00\x00\x00\x00\x00\x00'
p396
tp397
Rp398
g239
tp399
((lp400
g398
aI104
aI109
ag1
(g5
S'\xbc\x00\x00\x00\x00\x00\x00\x00'
p401
tp402
Rp403
a(lp404
I144
atp405
s(g1
(g5
S'd\x00\x00\x00\x00\x00\x00\x00'
p406
tp407
Rp408
V4_30
p409
tp410
((lp411
g408
aI186
a(lp412
I105
atp413
s(g103
V9_58
p414
tp415
((lp416
g103
aI110
ag1
(g5
S'e\x00\x00\x00\x00\x00\x00\x00'
p417
tp418
Rp419
a(lp420
I88
atp421
s(g53
V0_5
p422
tp423
((lp424
g53
aI84
aI7
aI42
ag1
(g5
S'\xb8\x00\x00\x00\x00\x00\x00\x00'
p425
tp426
Rp427
a(lp428
I139
atp429
s(g1
(g5
S'\xa1\x00\x00\x00\x00\x00\x00\x00'
p430
tp431
Rp432
V7_51
p433
tp434
((lp435
g432
aI111
aI179
a(lp436
I157
atp437
s(g1
(g5
S'\x82\x00\x00\x00\x00\x00\x00\x00'
p438
tp439
Rp440
V6_48
p441
tp442
((lp443
g440
aI67
aI4
aI82
ag1
(g5
S'\x88\x00\x00\x00\x00\x00\x00\x00'
p444
tp445
Rp446
a(lp447
I161
atp448
s(g18
V1_11
p449
tp450
((lp451
g18
aI106
aI175
a(lp452
I130
atp453
s(g379
V6_44
p454
tp455
((lp456
g379
aI109
aI108
aI67
ag1
(g5
S'\x82\x00\x00\x00\x00\x00\x00\x00'
p457
tp458
Rp459
a(lp460
I156
atp461
s(g217
V5_41
p462
tp463
((lp464
g217
aI94
aI102
ag1
(g5
S'y\x00\x00\x00\x00\x00\x00\x00'
p465
tp466
Rp467
a(lp468
I126
atp469
s(g440
V6_46
p470
tp471
((lp472
g440
aI67
aI4
aI97
ag1
(g5
S'\x84\x00\x00\x00\x00\x00\x00\x00'
p473
tp474
Rp475
a(lp476
I162
atp477
s(g18
V1_13
p478
tp479
((lp480
g18
aI106
aI104
ag1
(g5
S'\xb5\x00\x00\x00\x00\x00\x00\x00'
p481
tp482
Rp483
a(lp484
I132
atp485
s(g256
V0_2
p486
tp487
((lp488
g256
aI77
ag1
(g5
S'\x9a\x00\x00\x00\x00\x00\x00\x00'
p489
tp490
Rp491
a(lp492
I122
atp493
s(g1
(g5
S'\xa0\x00\x00\x00\x00\x00\x00\x00'
p494
tp495
Rp496
V8_54
p497
tp498
((lp499
g496
aI110
aI4
ag1
(g5
S'h\x00\x00\x00\x00\x00\x00\x00'
p500
tp501
Rp502
a(lp503
I108
atp504
s(g1
(g5
S'\xb0\x00\x00\x00\x00\x00\x00\x00'
p505
tp506
Rp507
V4_34
p508
tp509
((lp510
g507
aI103
ag1
(g5
S'\x90\x00\x00\x00\x00\x00\x00\x00'
p511
tp512
Rp513
a(lp514
I145
atp515
s(I199
V8_52
p516
tp517
((lp518
I199
aI197
aI173
aI110
a(lp519
I78
atp520
s(g398
g161
tp521
((lp522
g398
aI104
aI109
ag1
(g5
S'x\x00\x00\x00\x00\x00\x00\x00'
p523
tp524
Rp525
a(lp526
I143
atp527
s(g103
V9_59
p528
tp529
((lp530
g103
aI110
ag1
(g5
S'\x8d\x00\x00\x00\x00\x00\x00\x00'
p531
tp532
Rp533
a(lp534
I89
atp535
s(g53
V0_6
p536
tp537
((lp538
g53
aI84
aI7
aI105
ag1
(g5
S'\xa6\x00\x00\x00\x00\x00\x00\x00'
p539
tp540
Rp541
a(lp542
I140
atp543
s(g275
g46
tp544
((lp545
g275
aI111
a(lp546
I110
atp547
s(g160
g239
tp548
((lp549
g160
aI109
ag1
(g5
S'l\x00\x00\x00\x00\x00\x00\x00'
p550
tp551
Rp552
a(lp553
I118
atp554
s(I196
g83
tp555
((lp556
I196
aI185
a(lp557
I83
atp558
s(g217
V5_38
p559
tp560
((lp561
g217
aI94
aI3
aI76
ag1
(g5
S'q\x00\x00\x00\x00\x00\x00\x00'
p562
tp563
Rp564
a(lp565
I128
atp566
s(g72
V6_47
p567
tp568
((lp569
g72
aI108
aI94
a(lp570
I160
atp571
s(g349
g11
tp572
((lp573
g349
aI112
ag1
(g5
S'i\x00\x00\x00\x00\x00\x00\x00'
p574
tp575
Rp576
a(lp577
I98
atp578
s(g26
V4_35
p579
tp580
((lp581
g26
aI112
aI116
a(lp582
I114
atp583
s(I198
V7_50
p584
tp585
((lp586
I198
aI196
aI185
aI112
aI100
aI111
ag1
(g5
S'\xa1\x00\x00\x00\x00\x00\x00\x00'
p587
tp588
Rp589
a(lp590
I150
atp591
s(g198
V4_29
p592
tp593
((lp594
g198
aI118
a(lp595
I101
atp596
s.