(dp0
I0
(lp1
sI1
(lp2
sI2
(lp3
sI3
(lp4
V1#1_17
p5
asI4
(lp6
sI5
(lp7
sI6
(lp8
sI7
(lp9
sI8
(lp10
sI9
(lp11
sI10
(lp12
sI11
(lp13
sI12
(lp14
sI13
(lp15
sI14
(lp16
sI15
(lp17
V9#9_63
p18
asI16
(lp19
sI17
(lp20
sI18
(lp21
sI19
(lp22
sI20
(lp23
sI21
(lp24
sI22
(lp25
sI23
(lp26
sI24
(lp27
sI25
(lp28
sI26
(lp29
sI27
(lp30
sI28
(lp31
sI29
(lp32
sI30
(lp33
sI31
(lp34
sI32
(lp35
sI33
(lp36
sI34
(lp37
sI35
(lp38
sI36
(lp39
sI37
(lp40
sI38
(lp41
sI39
(lp42
sI40
(lp43
sI41
(lp44
sI42
(lp45
sI43
(lp46
sI44
(lp47
sI45
(lp48
sI46
(lp49
sI47
(lp50
sI48
(lp51
sI49
(lp52
sI50
(lp53
V6#6_49
p54
asI51
(lp55
sI52
(lp56
sI53
(lp57
sI54
(lp58
sI55
(lp59
sI56
(lp60
sI57
(lp61
sI58
(lp62
sI59
(lp63
sI60
(lp64
sI61
(lp65
sI62
(lp66
sI63
(lp67
sI64
(lp68
sI65
(lp69
sI66
(lp70
sI67
(lp71
sI68
(lp72
sI69
(lp73
sI70
(lp74
sI71
(lp75
sI72
(lp76
sI73
(lp77
sI74
(lp78
sI75
(lp79
V1#1_15
p80
asI76
(lp81
sI77
(lp82
sI78
(lp83
sI79
(lp84
sI80
(lp85
sI81
(lp86
sI82
(lp87
sI83
(lp88
sI84
(lp89
sI85
(lp90
sI86
(lp91
sI87
(lp92
sI88
(lp93
sI89
(lp94
sI90
(lp95
sI91
(lp96
sI92
(lp97
sI93
(lp98
sI94
(lp99
V6#6_47
p100
asI95
(lp101
sI96
(lp102
sI97
(lp103
sI98
(lp104
sI99
(lp105
sI100
(lp106
V4#4_28
p107
asI101
(lp108
V9#9_58
p109
asI102
(lp110
V0#0_8
p111
asI103
(lp112
V9#9_57
p113
asI104
(lp114
V8#8_54
p115
asI105
(lp116
V3#3_23
p117
asI106
(lp118
V2#2_19
p119
asI107
(lp120
V5#5_37
p121
asI108
(lp122
V2#2_21
p123
asI109
(lp124
V3#3_22
p125
asI110
(lp126
V8#8_52
p127
asI111
(lp128
V3#3_24
p129
asI112
(lp130
V4#4_27
p131
asI113
(lp132
V5#5_38
p133
asI114
(lp134
sI115
(lp135
V3#3_24
p136
asI116
(lp137
V4#4_35
p138
asI117
(lp139
V3#3_25
p140
asI118
(lp141
V4#4_29
p142
asI119
(lp143
sI120
(lp144
V2#2_20
p145
asI121
(lp146
V5#5_41
p147
asI122
(lp148
V2#2_20
p149
asI123
(lp150
V5#5_36
p151
asI124
(lp152
sI125
(lp153
V3#3_26
p154
asI126
(lp155
V0#0_3
p156
asI127
(lp157
V3#3_23
p158
asI128
(lp159
V2#2_20
p160
asI129
(lp161
sI130
(lp162
V6#6_44
p163
asI131
(lp164
V1#1_12
p165
asI132
(lp166
V6#6_46
p167
asI133
(lp168
V1#1_9
p169
asI134
(lp170
V6#6_43
p171
asI135
(lp172
V9#9_60
p173
asI136
(lp174
V6#6_48
p175
asI137
(lp176
V9#9_56
p177
asI138
(lp178
V4#4_32
p179
asI139
(lp180
V5#5_40
p181
asI140
(lp182
V2#2_21
p183
asI141
(lp184
V9#9_59
p185
asI142
(lp186
V6#6_45
p187
asI143
(lp188
sI144
(lp189
V4#4_34
p190
asI145
(lp191
sI146
(lp192
V4#4_31
p193
asI147
(lp194
V1#1_16
p195
asI148
(lp196
sI149
(lp197
sI150
(lp198
sI151
(lp199
V9#9_61
p200
asI152
(lp201
sI153
(lp202
V1#1_18
p203
aV1#1_13
p204
aV1#1_12
p205
aV1#1_11
p206
aV1#1_10
p207
aV1#1_17
p208
aV1#1_16
p209
aV1#1_15
p210
aV1#1_14
p211
aV1#1_9
p212
aV0#0_8
p213
aV0#0_6
p214
aV0#0_7
p215
aV0#0_4
p216
aV0#0_5
p217
aV0#0_2
p218
aV0#0_3
p219
aV0#0_0
p220
aV0#0_1
p221
aV3#3_24
p222
aV3#3_25
p223
aV3#3_26
p224
aV3#3_22
p225
aV3#3_23
p226
aV2#2_19
p227
aV2#2_21
p228
aV2#2_20
p229
aV5#5_39
p230
aV5#5_38
p231
aV5#5_40
p232
aV5#5_41
p233
aV5#5_37
p234
aV5#5_36
p235
aV4#4_27
p236
aV4#4_29
p237
aV4#4_28
p238
aV4#4_32
p239
aV4#4_33
p240
aV4#4_30
p241
aV4#4_31
p242
aV4#4_34
p243
aV4#4_35
p244
aV7#7_51
p245
aV7#7_50
p246
aV6#6_49
p247
aV6#6_48
p248
aV6#6_45
p249
aV6#6_44
p250
aV6#6_47
p251
aV6#6_46
p252
aV6#6_43
p253
aV6#6_42
p254
aV9#9_59
p255
aV9#9_58
p256
aV9#9_57
p257
aV9#9_56
p258
aV9#9_55
p259
aV9#9_61
p260
aV9#9_62
p261
aV9#9_63
p262
aV9#9_60
p263
aV8#8_54
p264
aV8#8_52
p265
aV8#8_53
p266
asI154
(lp267
V0#0_2
p268
asI155
(lp269
V9#9_62
p270
asI156
(lp271
sI157
(lp272
sI158
(lp273
sI159
(lp274
V3#3_26
p275
asI160
(lp276
V8#8_53
p277
asI161
(lp278
V7#7_50
p279
asI162
(lp280
sI163
(lp281
sI164
(lp282
sI165
(lp283
V1#1_14
p284
asI166
(lp285
V0#0_6
p286
asI167
(lp287
sI168
(lp288
V2#2_19
p289
asI169
(lp290
V4#None
p291
aV0#None
p292
asI170
(lp293
V0#0_1
p294
asI171
(lp295
V1#1_18
p296
asI172
(lp297
V2#None
p298
asI173
(lp299
V9#9_55
p300
asI174
(lp301
V0#0_7
p302
asI175
(lp303
V1#1_11
p304
asI176
(lp305
V4#4_33
p306
asI177
(lp307
sI178
(lp308
V2#None
p309
asI179
(lp310
V7#7_51
p311
asI180
(lp312
V0#0_4
p313
asI181
(lp314
V1#1_13
p315
asI182
(lp316
V2#2_19
p317
asI183
(lp318
V5#5_39
p319
asI184
(lp320
V0#0_5
p321
asI185
(lp322
V3#3_22
p323
asI186
(lp324
V4#4_30
p325
asI187
(lp326
V5#None
p327
asI188
(lp328
V2#2_21
p329
asI189
(lp330
V1#1_10
p331
asI190
(lp332
V6#6_42
p333
asI191
(lp334
V3#3_25
p335
asI192
(lp336
V0#0_0
p337
asI193
(lp338
sI194
(lp339
V6#None
p340
aV3#None
p341
asI195
(lp342
V2#None
p343
asI196
(lp344
V3#None
p345
aV1#None
p346
asI197
(lp347
V9#None
p348
asI198
(lp349
V7#None
p350
asI199
(lp351
V8#None
p352
as.