(dp0
(I153
V5_37
p1
tp2
((lp3
I153
a(lp4
I37
atp5
s(I197
V9_63
p6
tp7
((lp8
I197
a(lp9
I125
atp10
s(I172
V2_20
p11
tp12
((lp13
I172
a(lp14
I147
atp15
s(I190
V6_47
p16
tp17
((lp18
I190
a(lp19
I98
atp20
s(I196
V1_11
p21
tp22
((lp23
I196
a(lp24
I105
atp25
s(I196
V3_26
p26
tp27
(g23
(lp28
I119
atp29
s(I190
V3_23
p30
tp31
(g18
(lp32
I151
atp33
s(I169
V0_5
p34
tp35
((lp36
I169
a(lp37
I130
atp38
s(I196
V1_17
p39
tp40
(g23
(lp41
I117
atp42
s(I169
V0_0
p43
tp44
(g36
(lp45
I116
atp46
s(I187
V5_36
p47
tp48
((lp49
I187
aI112
aI100
aI74
aI153
a(lp50
I36
atp51
s(I195
V2_21
p52
tp53
((lp54
I195
a(lp55
I138
atp56
s(I169
V4_31
p57
tp58
(g36
(lp59
I141
atp60
s(I169
V0_4
p61
tp62
(g36
(lp63
I123
atp64
s(I169
V0_6
p65
tp66
(g36
(lp67
I131
atp68
s(I197
V9_62
p69
tp70
(g8
(lp71
I124
atp72
s(I190
V6_46
p73
tp74
(g18
(lp75
I102
atp76
s(I169
V4_30
p77
tp78
(g36
(lp79
I139
atp80
s(I197
V9_55
p81
tp82
(g8
(lp83
I83
atp84
s(I169
V0_7
p85
tp86
(g36
(lp87
I132
atp88
s(I169
V0_3
p89
tp90
(g36
(lp91
I129
atp92
s(I194
V6_42
p93
tp94
((lp95
I194
aI190
a(lp96
I81
atp97
s(I153
V5_38
p98
tp99
(g3
(lp100
I38
atp101
s(I172
V2_19
p102
tp103
(g13
(lp104
I146
atp105
s(I197
V9_58
p106
tp107
(g8
(lp108
I92
atp109
s(I169
V0_8
p110
tp111
(g36
(lp112
I128
atp113
s(I169
V4_33
p114
tp115
(g36
(lp116
I144
atp117
s(I196
V1_16
p118
tp119
(g23
(lp120
I112
atp121
s(I169
V4_27
p122
tp123
(g36
(lp124
I126
atp125
s(I196
g30
tp126
(g23
(lp127
I111
atp128
s(I197
V9_57
p129
tp130
(g8
(lp131
I100
atp132
s(I153
g11
tp133
(g3
(lp134
I20
atp135
s(I169
V4_32
p136
tp137
(g36
(lp138
I142
atp139
s(I190
V6_45
p140
tp141
(g18
(lp142
I97
atp143
s(I195
g11
tp144
(g54
(lp145
I137
atp146
s(I190
V3_24
p147
tp148
(g18
(lp149
I152
atp150
s(I197
V9_56
p151
tp152
(g8
(lp153
I91
atp154
s(I169
V4_35
p155
tp156
(g36
(lp157
I140
atp158
s(I178
g102
tp159
((lp160
I178
aI107
aI7
aI74
aI153
a(lp161
I19
atp162
s(I153
V5_39
p163
tp164
(g3
(lp165
I39
atp166
s(I197
V9_61
p167
tp168
(g8
(lp169
I94
atp170
s(I197
V9_59
p171
tp172
(g8
(lp173
I93
atp174
s(I190
V6_49
p175
tp176
(g18
(lp177
I96
atp178
s(I169
V0_1
p179
tp180
(g36
(lp181
I121
atp182
s(I199
V8_53
p183
tp184
((lp185
I199
a(lp186
I86
atp187
s(I169
V0_2
p188
tp189
(g36
(lp190
I122
atp191
s(I196
V1_15
p192
tp193
(g23
(lp194
I108
atp195
s(I190
V3_25
p196
tp197
(g18
(lp198
I150
atp199
s(I153
g52
tp200
(g3
(lp201
I21
atp202
s(I199
V8_54
p203
tp204
((lp205
I199
aI197
a(lp206
I95
atp207
s(I190
V6_44
p208
tp209
(g18
(lp210
I89
atp211
s(I196
g147
tp212
(g23
(lp213
I118
atp214
s(I153
V5_41
p215
tp216
(g3
(lp217
I41
atp218
s(I196
V1_10
p219
tp220
(g23
(lp221
I104
atp222
s(I195
g102
tp223
(g54
(lp224
I136
atp225
s(I196
V1_13
p226
tp227
(g23
(lp228
I107
atp229
s(I198
V7_51
p230
tp231
((lp232
I198
a(lp233
I133
atp234
s(I197
V9_60
p235
tp236
(g8
(lp237
I115
atp238
s(I172
g52
tp239
(g13
(lp240
I148
atp241
s(I190
V6_48
p242
tp243
(g18
(lp244
I101
atp245
s(I199
V8_52
p246
tp247
(g185
(lp248
I84
atp249
s(I196
V1_12
p250
tp251
(g23
(lp252
I106
atp253
s(I196
g196
tp254
(g23
(lp255
I110
atp256
s(I196
V1_9
p257
tp258
(g23
(lp259
I90
atp260
s(I169
V4_28
p261
tp262
(g36
(lp263
I134
atp264
s(I194
V3_22
p265
tp266
(g95
(lp267
I149
atp268
s(I196
V1_18
p269
tp270
(g23
(lp271
I109
atp272
s(I190
V6_43
p273
tp274
(g18
(lp275
I88
atp276
s(I169
V4_34
p277
tp278
(g36
(lp279
I145
atp280
s(I153
V5_40
p281
tp282
(g3
(lp283
I40
atp284
s(I190
g26
tp285
(g18
(lp286
I153
atp287
s(I169
V4_29
p288
tp289
(g36
(lp290
I135
atp291
s(I196
V1_14
p292
tp293
(g23
(lp294
I113
atp295
s(I198
V7_50
p296
tp297
(g232
(lp298
I114
atp299
s(I196
g265
tp300
(g23
(lp301
I87
atp302
s.