(dp0
(I153
V5_37
p1
tp2
((lp3
I153
a(lp4
I37
atp5
s(I197
V9_63
p6
tp7
((lp8
I197
a(lp9
I128
atp10
s(I172
V2_20
p11
tp12
((lp13
I172
a(lp14
I142
atp15
s(I190
V6_47
p16
tp17
((lp18
I190
a(lp19
I90
atp20
s(I197
V9_56
p21
tp22
(g8
(lp23
I108
atp24
s(I196
V1_17
p25
tp26
((lp27
I196
a(lp28
I153
atp29
s(I196
V3_26
p30
tp31
(g27
(lp32
I126
atp33
s(I190
V3_23
p34
tp35
(g18
(lp36
I137
atp37
s(I197
V9_59
p38
tp39
(g8
(lp40
I110
atp41
s(I169
V0_5
p42
tp43
((lp44
I169
a(lp45
I103
atp46
s(I169
V0_0
p47
tp48
(g44
(lp49
I94
atp50
s(I187
V5_36
p51
tp52
((lp53
I187
aI112
aI100
aI74
aI153
a(lp54
I36
atp55
s(I169
V4_31
p56
tp57
(g44
(lp58
I121
atp59
s(I196
V1_10
p60
tp61
(g27
(lp62
I145
atp63
s(I169
V0_6
p64
tp65
(g44
(lp66
I104
atp67
s(I197
V9_62
p68
tp69
(g8
(lp70
I127
atp71
s(I190
V6_46
p72
tp73
(g18
(lp74
I93
atp75
s(I196
V1_16
p76
tp77
(g27
(lp78
I151
atp79
s(I169
V4_30
p80
tp81
(g44
(lp82
I119
atp83
s(I199
V8_54
p84
tp85
((lp86
I199
a(lp87
I85
atp88
s(I195
V2_19
p89
tp90
((lp91
I195
a(lp92
I133
atp93
s(I194
V6_42
p94
tp95
((lp96
I194
aI190
a(lp97
I80
atp98
s(I153
V5_38
p99
tp100
(g3
(lp101
I38
atp102
s(I172
g89
tp103
(g13
(lp104
I141
atp105
s(I197
V9_58
p106
tp107
(g8
(lp108
I109
atp109
s(I169
V0_8
p110
tp111
(g44
(lp112
I101
atp113
s(I169
V4_33
p114
tp115
(g44
(lp116
I124
atp117
s(I196
V1_9
p118
tp119
(g27
(lp120
I144
atp121
s(I169
V0_3
p122
tp123
(g44
(lp124
I102
atp125
s(I196
g34
tp126
(g27
(lp127
I118
atp128
s(I153
V2_21
p129
tp130
(g3
(lp131
I21
atp132
s(I197
V9_57
p133
tp134
(g8
(lp135
I116
atp136
s(I153
g11
tp137
(g3
(lp138
I20
atp139
s(I169
V4_32
p140
tp141
(g44
(lp142
I123
atp143
s(I190
V6_45
p144
tp145
(g18
(lp146
I89
atp147
s(I195
g11
tp148
(g91
(lp149
I134
atp150
s(I190
V3_24
p151
tp152
(g18
(lp153
I138
atp154
s(I169
V0_4
p155
tp156
(g44
(lp157
I98
atp158
s(I169
V4_35
p159
tp160
(g44
(lp161
I120
atp162
s(I178
g89
tp163
((lp164
I178
aI107
aI7
aI74
aI153
a(lp165
I19
atp166
s(I196
V1_18
p167
tp168
(g27
(lp169
I150
atp170
s(I153
V5_39
p171
tp172
(g3
(lp173
I39
atp174
s(I197
V9_61
p175
tp176
(g8
(lp177
I111
atp178
s(I169
V4_27
p179
tp180
(g44
(lp181
I107
atp182
s(I190
V6_49
p183
tp184
(g18
(lp185
I88
atp186
s(I196
V1_15
p187
tp188
(g27
(lp189
I149
atp190
s(I190
V6_43
p191
tp192
(g18
(lp193
I86
atp194
s(I199
V8_53
p195
tp196
(g86
(lp197
I83
atp198
s(I169
V0_2
p199
tp200
(g44
(lp201
I97
atp202
s(I196
g151
tp203
(g27
(lp204
I125
atp205
s(I190
V3_25
p206
tp207
(g18
(lp208
I136
atp209
s(I195
g129
tp210
(g91
(lp211
I135
atp212
s(I197
V9_55
p213
tp214
(g8
(lp215
I100
atp216
s(I190
V6_44
p217
tp218
(g18
(lp219
I87
atp220
s(I153
V5_41
p221
tp222
(g3
(lp223
I41
atp224
s(I169
V4_29
p225
tp226
(g44
(lp227
I114
atp228
s(I196
V1_13
p229
tp230
(g27
(lp231
I148
atp232
s(I198
V7_51
p233
tp234
((lp235
I198
a(lp236
I115
atp237
s(I197
V9_60
p238
tp239
(g8
(lp240
I122
atp241
s(I172
g129
tp242
(g13
(lp243
I143
atp244
s(I190
V6_48
p245
tp246
(g18
(lp247
I92
atp248
s(I199
V8_52
p249
tp250
(g86
(lp251
I81
atp252
s(I196
V1_12
p253
tp254
(g27
(lp255
I147
atp256
s(I196
g206
tp257
(g27
(lp258
I117
atp259
s(I169
V0_7
p260
tp261
(g44
(lp262
I105
atp263
s(I169
V4_28
p264
tp265
(g44
(lp266
I113
atp267
s(I194
V3_22
p268
tp269
(g96
(lp270
I132
atp271
s(I196
V1_11
p272
tp273
(g27
(lp274
I146
atp275
s(I169
V0_1
p276
tp277
(g44
(lp278
I96
atp279
s(I169
V4_34
p280
tp281
(g44
(lp282
I129
atp283
s(I153
V5_40
p284
tp285
(g3
(lp286
I40
atp287
s(I190
g30
tp288
(g18
(lp289
I139
atp290
s(I196
V1_14
p291
tp292
(g27
(lp293
I152
atp294
s(I198
V7_50
p295
tp296
(g235
(lp297
I99
atp298
s(I196
g268
tp299
(g27
(lp300
I112
atp301
s.