(dp0
(I196
V1_10
p1
tp2
((lp3
I196
a(lp4
I111
atp5
s(I197
V9_63
p6
tp7
((lp8
I197
a(lp9
I104
atp10
s(I172
V2_20
p11
tp12
((lp13
I172
a(lp14
I138
atp15
s(I169
V4_31
p16
tp17
((lp18
I169
a(lp19
I94
atp20
s(I169
V0_6
p21
tp22
(g18
(lp23
I151
atp24
s(I153
V5_37
p25
tp26
((lp27
I153
a(lp28
I37
atp29
s(I169
V4_28
p30
tp31
(g18
(lp32
I89
atp33
s(I196
V3_26
p34
tp35
(g3
(lp36
I118
atp37
s(I190
V3_23
p38
tp39
((lp40
I190
a(lp41
I124
atp42
s(I190
V6_47
p43
tp44
(g40
(lp45
I134
atp46
s(I169
V0_5
p47
tp48
(g18
(lp49
I150
atp50
s(I196
V1_17
p51
tp52
(g3
(lp53
I121
atp54
s(I169
V4_34
p55
tp56
(g18
(lp57
I106
atp58
s(I187
V5_36
p59
tp60
((lp61
I187
aI112
aI100
aI74
aI153
a(lp62
I36
atp63
s(I190
V6_45
p64
tp65
(g40
(lp66
I133
atp67
s(I190
V6_46
p68
tp69
(g40
(lp70
I137
atp71
s(I190
V6_44
p72
tp73
(g40
(lp74
I131
atp75
s(I197
V9_62
p76
tp77
(g8
(lp78
I103
atp79
s(I169
V4_30
p80
tp81
(g18
(lp82
I92
atp83
s(I197
V9_55
p84
tp85
(g8
(lp86
I81
atp87
s(I195
V2_19
p88
tp89
((lp90
I195
a(lp91
I95
atp92
s(I169
V0_3
p93
tp94
(g18
(lp95
I149
atp96
s(I194
V6_42
p97
tp98
((lp99
I194
aI190
a(lp100
I125
atp101
s(I153
V5_38
p102
tp103
(g27
(lp104
I38
atp105
s(I172
g88
tp106
(g13
(lp107
I135
atp108
s(I197
V9_58
p109
tp110
(g8
(lp111
I86
atp112
s(I169
V0_8
p113
tp114
(g18
(lp115
I148
atp116
s(I196
V1_16
p117
tp118
(g3
(lp119
I119
atp120
s(I197
V9_59
p121
tp122
(g8
(lp123
I87
atp124
s(I196
g38
tp125
(g3
(lp126
I110
atp127
s(I197
V9_57
p128
tp129
(g8
(lp130
I91
atp131
s(I153
g11
tp132
(g27
(lp133
I20
atp134
s(I169
V0_1
p135
tp136
(g18
(lp137
I145
atp138
s(I169
V4_33
p139
tp140
(g18
(lp141
I102
atp142
s(I195
g11
tp143
(g90
(lp144
I98
atp145
s(I190
V3_24
p146
tp147
(g40
(lp148
I126
atp149
s(I197
V9_56
p150
tp151
(g8
(lp152
I85
atp153
s(I197
V8_53
p154
tp155
(g8
(lp156
I144
atp157
s(I178
g88
tp158
((lp159
I178
aI107
aI7
aI74
aI153
a(lp160
I19
atp161
s(I196
V1_18
p162
tp163
(g3
(lp164
I116
atp165
s(I153
V5_39
p166
tp167
(g27
(lp168
I39
atp169
s(I197
V9_61
p170
tp171
(g8
(lp172
I88
atp173
s(I169
V4_27
p174
tp175
(g18
(lp176
I82
atp177
s(I190
V6_49
p178
tp179
(g40
(lp180
I132
atp181
s(I190
V6_43
p182
tp183
(g40
(lp184
I130
atp185
s(I196
V1_15
p186
tp187
(g3
(lp188
I115
atp189
s(I169
V0_2
p190
tp191
(g18
(lp192
I146
atp193
s(I196
g146
tp194
(g3
(lp195
I117
atp196
s(I190
V3_25
p197
tp198
(g40
(lp199
I123
atp200
s(I153
V2_21
p201
tp202
(g27
(lp203
I21
atp204
s(I196
V1_12
p205
tp206
(g3
(lp207
I113
atp208
s(I169
V4_32
p209
tp210
(g18
(lp211
I101
atp212
s(I153
V5_41
p213
tp214
(g27
(lp215
I41
atp216
s(I195
g201
tp217
(g90
(lp218
I99
atp219
s(I196
V1_13
p220
tp221
(g3
(lp222
I114
atp223
s(I198
V7_51
p224
tp225
((lp226
I198
a(lp227
I108
atp228
s(I197
V9_60
p229
tp230
(g8
(lp231
I96
atp232
s(I172
g201
tp233
(g13
(lp234
I139
atp235
s(I190
V6_48
p236
tp237
(g40
(lp238
I136
atp239
s(I196
V1_14
p240
tp241
(g3
(lp242
I120
atp243
s(I169
V0_4
p244
tp245
(g18
(lp246
I147
atp247
s(I196
g197
tp248
(g3
(lp249
I109
atp250
s(I196
V1_9
p251
tp252
(g3
(lp253
I107
atp254
s(I169
V0_7
p255
tp256
(g18
(lp257
I152
atp258
s(I194
V3_22
p259
tp260
(g99
(lp261
I122
atp262
s(I196
V1_11
p263
tp264
(g3
(lp265
I112
atp266
s(I169
V4_35
p267
tp268
(g18
(lp269
I93
atp270
s(I197
V8_54
p271
tp272
(g8
(lp273
I153
atp274
s(I169
V0_0
p275
tp276
(g18
(lp277
I143
atp278
s(I153
V5_40
p279
tp280
(g27
(lp281
I40
atp282
s(I190
g34
tp283
(g40
(lp284
I127
atp285
s(I169
V4_29
p286
tp287
(g18
(lp288
I90
atp289
s(I199
V8_52
p290
tp291
((lp292
I199
aI197
a(lp293
I141
atp294
s(I198
V7_50
p295
tp296
(g226
(lp297
I97
atp298
s(I196
g259
tp299
(g3
(lp300
I105
atp301
s.