(dp0
(I153
V5_37
p1
tp2
((lp3
I153
a(lp4
I37
atp5
s(I197
V9_63
p6
tp7
((lp8
I197
a(lp9
I122
atp10
s(I172
V2_20
p11
tp12
((lp13
I172
a(lp14
I97
atp15
s(I169
V4_31
p16
tp17
((lp18
I169
a(lp19
I102
atp20
s(I195
g11
tp21
((lp22
I195
a(lp23
I91
atp24
s(I196
V3_26
p25
tp26
((lp27
I196
a(lp28
I117
atp29
s(I190
V3_23
p30
tp31
((lp32
I190
a(lp33
I128
atp34
s(I197
V9_62
p35
tp36
(g8
(lp37
I121
atp38
s(I169
V0_5
p39
tp40
(g18
(lp41
I141
atp42
s(I190
V6_47
p43
tp44
(g32
(lp45
I114
atp46
s(I169
V4_34
p47
tp48
(g18
(lp49
I123
atp50
s(I196
V3_22
p51
tp52
(g27
(lp53
I88
atp54
s(I196
V1_11
p55
tp56
(g27
(lp57
I146
atp58
s(I190
V6_46
p59
tp60
(g32
(lp61
I119
atp62
s(I169
V4_32
p63
tp64
(g18
(lp65
I109
atp66
s(I172
V2_19
p67
tp68
(g13
(lp69
I84
atp70
s(I169
V4_30
p71
tp72
(g18
(lp73
I100
atp74
s(I196
V1_16
p75
tp76
(g27
(lp77
I151
atp78
s(I197
V9_55
p79
tp80
(g8
(lp81
I81
atp82
s(I195
g67
tp83
(g22
(lp84
I85
atp85
s(I169
V0_3
p86
tp87
(g18
(lp88
I140
atp89
s(I194
V6_42
p90
tp91
((lp92
I194
aI190
a(lp93
I87
atp94
s(I153
V5_38
p95
tp96
(g3
(lp97
I38
atp98
s(I197
V9_58
p99
tp100
(g8
(lp101
I94
atp102
s(I169
V0_8
p103
tp104
(g18
(lp105
I139
atp106
s(I197
V9_56
p107
tp108
(g8
(lp109
I93
atp110
s(I169
V0_6
p111
tp112
(g18
(lp113
I142
atp114
s(I169
V4_27
p115
tp116
(g18
(lp117
I82
atp118
s(I196
g30
tp119
(g27
(lp120
I104
atp121
s(I196
V1_17
p122
tp123
(g27
(lp124
I153
atp125
s(I197
V9_57
p126
tp127
(g8
(lp128
I99
atp129
s(I153
g11
tp130
(g3
(lp131
I20
atp132
s(I196
V1_10
p133
tp134
(g27
(lp135
I145
atp136
s(I169
V0_1
p137
tp138
(g18
(lp139
I136
atp140
s(I169
V4_33
p141
tp142
(g18
(lp143
I111
atp144
s(I190
V3_24
p145
tp146
(g32
(lp147
I131
atp148
s(I169
V4_28
p149
tp150
(g18
(lp151
I89
atp152
s(I197
V8_53
p153
tp154
(g8
(lp155
I130
atp156
s(I178
g67
tp157
((lp158
I178
aI107
aI7
aI74
aI153
a(lp159
I19
atp160
s(I196
V1_18
p161
tp162
(g27
(lp163
I150
atp164
s(I153
V5_39
p165
tp166
(g3
(lp167
I39
atp168
s(I197
V9_61
p169
tp170
(g8
(lp171
I96
atp172
s(I197
V9_59
p173
tp174
(g8
(lp175
I95
atp176
s(I190
V6_49
p177
tp178
(g32
(lp179
I112
atp180
s(I190
V6_43
p181
tp182
(g32
(lp183
I107
atp184
s(I196
V1_15
p185
tp186
(g27
(lp187
I149
atp188
s(I169
V0_2
p189
tp190
(g18
(lp191
I137
atp192
s(I196
g145
tp193
(g27
(lp194
I116
atp195
s(I190
V3_25
p196
tp197
(g32
(lp198
I127
atp199
s(I196
V1_9
p200
tp201
(g27
(lp202
I144
atp203
s(I196
V1_12
p204
tp205
(g27
(lp206
I147
atp207
s(I190
V6_44
p208
tp209
(g32
(lp210
I108
atp211
s(I153
V2_21
p212
tp213
(g3
(lp214
I21
atp215
s(I153
V5_41
p216
tp217
(g3
(lp218
I41
atp219
s(I195
g212
tp220
(g22
(lp221
I92
atp222
s(I196
V1_13
p223
tp224
(g27
(lp225
I148
atp226
s(I198
V7_51
p227
tp228
((lp229
I198
a(lp230
I133
atp231
s(I197
V9_60
p232
tp233
(g8
(lp234
I110
atp235
s(I172
g212
tp236
(g13
(lp237
I98
atp238
s(I190
V6_48
p239
tp240
(g32
(lp241
I118
atp242
s(I199
V8_52
p243
tp244
((lp245
I199
aI197
a(lp246
I115
atp247
s(I169
V0_4
p248
tp249
(g18
(lp250
I138
atp251
s(I196
g196
tp252
(g27
(lp253
I103
atp254
s(I190
V6_45
p255
tp256
(g32
(lp257
I113
atp258
s(I169
V0_7
p259
tp260
(g18
(lp261
I143
atp262
s(I194
g51
tp263
(g92
(lp264
I124
atp265
s(I197
V8_54
p266
tp267
(g8
(lp268
I134
atp269
s(I169
V4_35
p270
tp271
(g18
(lp272
I101
atp273
s(I169
V0_0
p274
tp275
(g18
(lp276
I135
atp277
s(I153
V5_40
p278
tp279
(g3
(lp280
I40
atp281
s(I190
g25
tp282
(g32
(lp283
I132
atp284
s(I169
V4_29
p285
tp286
(g18
(lp287
I90
atp288
s(I196
V1_14
p289
tp290
(g27
(lp291
I152
atp292
s(I198
V7_50
p293
tp294
(g229
(lp295
I125
atp296
s(I187
V5_36
p297
tp298
((lp299
I187
aI112
aI100
aI74
aI153
a(lp300
I36
atp301
s.