(dp0
(I199
V1_18
p1
tp2
((lp3
I199
aI197
aI173
aI110
aI98
aI57
a(lp4
I119
atp5
s(I57
V1_14
p6
tp7
((lp8
I57
aI6
aI15
aI58
a(lp9
I159
atp10
s(I108
V4_34
p11
tp12
((lp13
I108
aI109
aI106
aI175
a(lp14
I154
atp15
s(I108
V6_46
p16
tp17
(g13
(lp18
I153
atp19
s(I194
V4_35
p20
tp21
((lp22
I194
aI190
aI83
aI2
aI107
aI84
a(lp23
I138
atp24
s(I108
V6_49
p25
tp26
(g13
(lp27
I149
atp28
s(I95
V5_38
p29
tp30
((lp31
I95
aI5
aI6
aI57
a(lp32
I103
atp33
s(I57
V9_59
p34
tp35
(g8
(lp36
I97
atp37
s(I108
V2_20
p38
tp39
((lp40
I108
aI67
aI4
aI8
a(lp41
I120
atp42
s(I199
V7_51
p43
tp44
(g3
(lp45
I147
atp46
s(I194
V3_22
p47
tp48
(g22
(lp49
I91
atp50
s(I169
V0_0
p51
tp52
((lp53
I169
aI112
aI3
aI6
aI85
aI177
aI193
a(lp54
I90
atp55
s(I196
g47
tp56
((lp57
I196
aI185
aI112
aI110
aI173
aI197
aI199
a(lp58
I83
atp59
s(I194
V0_6
p60
tp61
(g22
(lp62
I143
atp63
s(I199
V1_10
p64
tp65
(g3
(lp66
I114
atp67
s(I57
V9_58
p68
tp69
(g8
(lp70
I96
atp71
s(I84
V3_25
p72
tp73
((lp74
I84
aI7
aI108
a(lp75
I107
atp76
s(I57
V9_56
p77
tp78
(g8
(lp79
I95
atp80
s(I172
V2_19
p81
tp82
((lp83
I172
aI90
aI2
aI5
aI91
a(lp84
I100
atp85
s(I193
V0_1
p86
tp87
((lp88
I193
aI177
aI85
aI6
aI0
aI109
aI190
aI194
a(lp89
I130
atp90
s(I57
V9_61
p91
tp92
(g8
(lp93
I98
atp94
s(I197
V9_55
p95
tp96
((lp97
I197
aI173
aI110
aI98
aI57
a(lp98
I81
atp99
s(I195
g81
tp100
((lp101
I195
aI175
aI106
aI15
aI99
aI176
a(lp102
I99
atp103
s(I57
V5_39
p104
tp105
(g8
(lp106
I127
atp107
s(I95
V5_41
p108
tp109
(g31
(lp110
I101
atp111
s(I194
V6_42
p112
tp113
(g22
(lp114
I136
atp115
s(I105
V9_62
p116
tp117
((lp118
I105
aI7
aI3
aI94
a(lp119
I133
atp120
s(I193
V4_28
p121
tp122
(g88
(lp123
I124
atp124
s(I108
V6_45
p125
tp126
(g13
(lp127
I150
atp128
s(I193
V0_4
p129
tp130
(g88
(lp131
I132
atp132
s(I199
V1_11
p133
tp134
(g3
(lp135
I115
atp136
s(I108
V3_24
p137
tp138
(g13
(lp139
I122
atp140
s(I176
V2_21
p141
tp142
((lp143
I176
aI99
aI6
aI4
aI8
a(lp144
I121
atp145
s(I194
V4_30
p146
tp147
(g22
(lp148
I137
atp149
s(I196
V1_9
p150
tp151
(g57
(lp152
I89
atp153
s(I95
V5_37
p154
tp155
(g31
(lp156
I102
atp157
s(I108
V6_48
p158
tp159
(g13
(lp160
I152
atp161
s(I199
V1_15
p162
tp163
(g3
(lp164
I118
atp165
s(I178
g81
tp166
((lp167
I178
aI107
aI7
aI108
a(lp168
I106
atp169
s(I194
V4_31
p170
tp171
(g22
(lp172
I139
atp173
s(I169
V4_27
p174
tp175
(g53
(lp176
I85
atp177
s(I91
g38
tp178
((lp179
I91
aI5
aI7
a(lp180
I112
atp181
s(I84
V6_43
p182
tp183
(g74
(lp184
I145
atp185
s(I109
g137
tp186
((lp187
I109
aI0
aI103
aI176
a(lp188
I156
atp189
s(I105
V9_63
p190
tp191
(g118
(lp192
I134
atp193
s(I58
V9_57
p194
tp195
((lp196
I58
aI15
aI7
aI105
a(lp197
I111
atp198
s(I194
V0_8
p199
tp200
(g22
(lp201
I140
atp202
s(I84
V4_33
p203
tp204
(g74
(lp205
I148
atp206
s(I176
g38
tp207
(g143
(lp208
I120
atp209
s(I58
V9_60
p210
tp211
(g196
(lp212
I128
atp213
s(I84
V6_44
p214
tp215
(g74
(lp216
I146
atp217
s(I57
V5_40
p218
tp219
(g8
(lp220
I126
atp221
s(I194
V0_7
p222
tp223
(g22
(lp224
I144
atp225
s(I108
g141
tp226
(g40
(lp227
I121
atp228
s(I199
V1_12
p229
tp230
(g3
(lp231
I116
atp232
s(I84
V3_23
p233
tp234
(g74
(lp235
I108
atp236
s(I193
V4_29
p237
tp238
(g88
(lp239
I125
atp240
s(I91
g141
tp241
(g179
(lp242
I113
atp243
s(I57
V1_16
p244
tp245
(g8
(lp246
I158
atp247
s(I194
V0_3
p248
tp249
(g22
(lp250
I141
atp251
s(I58
V8_54
p252
tp253
(g196
(lp254
I135
atp255
s(I199
V8_52
p256
tp257
(g3
(lp258
I78
atp259
s(I84
V4_32
p260
tp261
(g74
(lp262
I155
atp263
s(I57
V1_17
p264
tp265
(g8
(lp266
I160
atp267
s(I57
V8_53
p268
tp269
(g8
(lp270
I105
atp271
s(I108
V3_26
p272
tp273
(g13
(lp274
I123
atp275
s(I108
V6_47
p276
tp277
(g13
(lp278
I151
atp279
s(I199
g233
tp280
((lp281
I199
aI197
aI173
aI110
aI0
aI109
a(lp282
I110
atp283
s(I193
V0_2
p284
tp285
(g88
(lp286
I131
atp287
s(I199
g72
tp288
(g281
(lp289
I109
atp290
s(I109
g272
tp291
(g187
(lp292
I157
atp293
s(I199
V1_13
p294
tp295
(g3
(lp296
I117
atp297
s(I194
V0_5
p298
tp299
(g22
(lp300
I142
atp301
s(I198
V7_50
p302
tp303
((lp304
I198
aI196
aI185
aI112
aI110
aI173
aI197
aI199
a(lp305
I129
atp306
s(I187
V5_36
p307
tp308
((lp309
I187
aI112
aI95
a(lp310
I93
atp311
s.