(dp0
(I199
V1_18
p1
tp2
((lp3
I199
aI197
aI173
aI110
aI98
aI57
a(lp4
I123
atp5
s(I57
V1_14
p6
tp7
((lp8
I57
aI6
aI15
aI58
a(lp9
I161
atp10
s(I108
V6_46
p11
tp12
((lp13
I108
aI109
aI106
aI175
a(lp14
I144
atp15
s(I194
V4_35
p16
tp17
((lp18
I194
aI190
aI83
aI2
aI107
aI84
a(lp19
I147
atp20
s(I108
V4_34
p21
tp22
(g13
(lp23
I159
atp24
s(I58
V8_54
p25
tp26
((lp27
I58
aI15
aI7
aI105
a(lp28
I158
atp29
s(I95
V5_38
p30
tp31
((lp32
I95
aI5
aI6
aI57
a(lp33
I91
atp34
s(I57
V9_59
p35
tp36
(g8
(lp37
I99
atp38
s(I108
V2_20
p39
tp40
((lp41
I108
aI67
aI4
aI8
a(lp42
I126
atp43
s(I199
V7_51
p44
tp45
(g3
(lp46
I145
atp47
s(I194
V3_22
p48
tp49
(g18
(lp50
I105
atp51
s(I169
V0_0
p52
tp53
((lp54
I169
aI112
aI3
aI6
aI85
aI177
aI193
a(lp55
I102
atp56
s(I196
g48
tp57
((lp58
I196
aI185
aI112
aI110
aI173
aI197
aI199
a(lp59
I81
atp60
s(I194
V0_6
p61
tp62
(g18
(lp63
I152
atp64
s(I199
V1_10
p65
tp66
(g3
(lp67
I118
atp68
s(I57
V8_53
p69
tp70
(g8
(lp71
I117
atp72
s(I84
V3_25
p73
tp74
((lp75
I84
aI7
aI108
a(lp76
I124
atp77
s(I57
V9_56
p78
tp79
(g8
(lp80
I97
atp81
s(I172
V2_19
p82
tp83
((lp84
I172
aI90
aI2
aI5
aI91
a(lp85
I104
atp86
s(I193
V0_1
p87
tp88
((lp89
I193
aI177
aI85
aI6
aI0
aI109
aI190
aI194
a(lp90
I140
atp91
s(I57
V3_24
p92
tp93
(g8
(lp94
I156
atp95
s(I57
V9_61
p96
tp97
(g8
(lp98
I100
atp99
s(I197
V9_55
p100
tp101
((lp102
I197
aI173
aI110
aI98
aI57
a(lp103
I79
atp104
s(I195
g82
tp105
((lp106
I195
aI175
aI106
aI15
aI99
aI176
a(lp107
I93
atp108
s(I57
V5_39
p109
tp110
(g8
(lp111
I114
atp112
s(I95
V5_41
p113
tp114
(g32
(lp115
I89
atp116
s(I194
V6_42
p117
tp118
(g18
(lp119
I108
atp120
s(I105
V9_62
p121
tp122
((lp123
I105
aI7
aI3
aI94
a(lp124
I133
atp125
s(I108
V6_45
p126
tp127
(g13
(lp128
I138
atp129
s(I193
V0_4
p130
tp131
(g89
(lp132
I142
atp133
s(I199
V1_11
p134
tp135
(g3
(lp136
I119
atp137
s(I193
V4_28
p138
tp139
(g89
(lp140
I129
atp141
s(I176
V2_21
p142
tp143
((lp144
I176
aI99
aI15
aI78
a(lp145
I111
atp146
s(I194
V4_30
p147
tp148
(g18
(lp149
I146
atp150
s(I199
V3_23
p151
tp152
(g3
(lp153
I107
atp154
s(I95
V5_37
p155
tp156
(g32
(lp157
I90
atp158
s(I108
V6_48
p159
tp160
(g13
(lp161
I143
atp162
s(I199
V1_15
p163
tp164
(g3
(lp165
I122
atp166
s(I178
g82
tp167
((lp168
I178
aI107
aI7
aI108
a(lp169
I109
atp170
s(I194
V4_31
p171
tp172
(g18
(lp173
I148
atp174
s(I169
V4_27
p175
tp176
(g54
(lp177
I94
atp178
s(I91
g39
tp179
((lp180
I91
aI5
aI7
a(lp181
I115
atp182
s(I108
g92
tp183
(g13
(lp184
I135
atp185
s(I84
V6_43
p186
tp187
(g75
(lp188
I131
atp189
s(I105
V9_63
p190
tp191
(g123
(lp192
I134
atp193
s(I58
V9_57
p194
tp195
(g27
(lp196
I112
atp197
s(I108
V6_49
p198
tp199
(g13
(lp200
I137
atp201
s(I84
V4_33
p202
tp203
(g75
(lp204
I154
atp205
s(I176
g39
tp206
(g144
(lp207
I110
atp208
s(I58
V9_60
p209
tp210
(g27
(lp211
I128
atp212
s(I84
V6_44
p213
tp214
(g75
(lp215
I132
atp216
s(I57
V5_40
p217
tp218
(g8
(lp219
I113
atp220
s(I194
V0_7
p221
tp222
(g18
(lp223
I153
atp224
s(I108
g142
tp225
(g41
(lp226
I127
atp227
s(I199
V1_12
p228
tp229
(g3
(lp230
I120
atp231
s(I84
g151
tp232
(g75
(lp233
I125
atp234
s(I193
V4_29
p235
tp236
(g89
(lp237
I130
atp238
s(I91
g142
tp239
(g180
(lp240
I116
atp241
s(I57
V1_16
p242
tp243
(g8
(lp244
I160
atp245
s(I194
V0_3
p246
tp247
(g18
(lp248
I150
atp249
s(I108
V6_47
p250
tp251
(g13
(lp252
I139
atp253
s(I199
V8_52
p254
tp255
(g3
(lp256
I77
atp257
s(I84
V4_32
p258
tp259
(g75
(lp260
I155
atp261
s(I57
V1_17
p262
tp263
(g8
(lp264
I162
atp265
s(I57
V9_58
p266
tp267
(g8
(lp268
I98
atp269
s(I108
V3_26
p270
tp271
(g13
(lp272
I136
atp273
s(I194
V0_8
p274
tp275
(g18
(lp276
I149
atp277
s(I193
V0_2
p278
tp279
(g89
(lp280
I141
atp281
s(I199
g73
tp282
(g3
(lp283
I106
atp284
s(I196
V1_9
p285
tp286
(g58
(lp287
I87
atp288
s(I57
g270
tp289
(g8
(lp290
I157
atp291
s(I199
V1_13
p292
tp293
(g3
(lp294
I121
atp295
s(I194
V0_5
p296
tp297
(g18
(lp298
I151
atp299
s(I198
V7_50
p300
tp301
((lp302
I198
aI196
aI185
aI112
aI110
aI173
aI197
aI199
a(lp303
I96
atp304
s(I187
V5_36
p305
tp306
((lp307
I187
aI112
aI95
a(lp308
I85
atp309
s.