(dp0
I0
(lp1
sI1
(lp2
sI2
(lp3
sI3
(lp4
sI4
(lp5
sI5
(lp6
sI6
(lp7
sI7
(lp8
sI8
(lp9
sI9
(lp10
sI10
(lp11
sI11
(lp12
sI12
(lp13
sI13
(lp14
sI14
(lp15
sI15
(lp16
sI16
(lp17
sI17
(lp18
sI18
(lp19
sI19
(lp20
sI20
(lp21
sI21
(lp22
sI22
(lp23
sI23
(lp24
sI24
(lp25
sI25
(lp26
sI26
(lp27
sI27
(lp28
sI28
(lp29
sI29
(lp30
sI30
(lp31
sI31
(lp32
sI32
(lp33
sI33
(lp34
sI34
(lp35
sI35
(lp36
sI36
(lp37
sI37
(lp38
sI38
(lp39
sI39
(lp40
sI40
(lp41
sI41
(lp42
sI42
(lp43
sI43
(lp44
sI44
(lp45
sI45
(lp46
sI46
(lp47
sI47
(lp48
sI48
(lp49
sI49
(lp50
sI50
(lp51
sI51
(lp52
sI52
(lp53
sI53
(lp54
sI54
(lp55
sI55
(lp56
sI56
(lp57
sI57
(lp58
V1#1_18
p59
aV1#1_13
p60
aV1#1_12
p61
aV1#1_11
p62
aV1#1_10
p63
aV1#1_15
p64
aV5#5_38
p65
aV5#5_41
p66
aV5#5_37
p67
aV7#7_51
p68
aV9#9_55
p69
aV8#8_52
p70
asI58
(lp71
V1#1_17
p72
aV1#1_16
p73
aV1#1_14
p74
aV5#5_39
p75
aV5#5_40
p76
aV9#9_59
p77
aV9#9_58
p78
aV9#9_56
p79
aV9#9_61
p80
aV8#8_53
p81
asI59
(lp82
sI60
(lp83
sI61
(lp84
sI62
(lp85
sI63
(lp86
sI64
(lp87
sI65
(lp88
sI66
(lp89
sI67
(lp90
sI68
(lp91
sI69
(lp92
sI70
(lp93
sI71
(lp94
sI72
(lp95
sI73
(lp96
sI74
(lp97
sI75
(lp98
sI76
(lp99
sI77
(lp100
sI78
(lp101
sI79
(lp102
sI80
(lp103
sI81
(lp104
sI82
(lp105
sI83
(lp106
sI84
(lp107
V0#0_8
p108
aV0#0_6
p109
aV0#0_7
p110
aV0#0_5
p111
aV0#0_3
p112
aV3#3_22
p113
aV4#4_30
p114
aV4#4_31
p115
aV4#4_35
p116
aV6#6_42
p117
asI85
(lp118
sI86
(lp119
sI87
(lp120
sI88
(lp121
sI89
(lp122
sI90
(lp123
sI91
(lp124
sI92
(lp125
sI93
(lp126
sI94
(lp127
V9#9_62
p128
aV9#9_63
p129
asI95
(lp130
V5#5_36
p131
asI96
(lp132
sI97
(lp133
sI98
(lp134
sI99
(lp135
sI100
(lp136
sI101
(lp137
sI102
(lp138
sI103
(lp139
sI104
(lp140
sI105
(lp141
V2#2_21
p142
aV2#2_20
p143
aV9#9_57
p144
aV9#9_60
p145
aV8#8_54
p146
asI106
(lp147
V2#2_21
p148
aV2#2_20
p149
asI107
(lp150
sI108
(lp151
V3#3_25
p152
aV3#3_23
p153
aV2#2_19
p154
aV6#6_44
p155
aV6#6_43
p156
asI109
(lp157
V3#3_25
p158
aV3#3_23
p159
aV2#2_19
p160
asI110
(lp161
V2#2_19
p162
asI111
(lp163
sI112
(lp164
sI113
(lp165
sI114
(lp166
sI115
(lp167
sI116
(lp168
sI117
(lp169
sI118
(lp170
sI119
(lp171
sI120
(lp172
sI121
(lp173
sI122
(lp174
sI123
(lp175
sI124
(lp176
sI125
(lp177
sI126
(lp178
sI127
(lp179
sI128
(lp180
sI129
(lp181
sI130
(lp182
sI131
(lp183
sI132
(lp184
sI133
(lp185
sI134
(lp186
sI135
(lp187
sI136
(lp188
sI137
(lp189
sI138
(lp190
sI139
(lp191
sI140
(lp192
sI141
(lp193
sI142
(lp194
sI143
(lp195
sI144
(lp196
sI145
(lp197
sI146
(lp198
sI147
(lp199
sI148
(lp200
sI149
(lp201
sI150
(lp202
sI151
(lp203
sI152
(lp204
sI153
(lp205
V1#1_18
p206
aV1#1_13
p207
aV1#1_12
p208
aV1#1_11
p209
aV1#1_10
p210
aV1#1_17
p211
aV1#1_16
p212
aV1#1_15
p213
aV1#1_14
p214
aV1#1_9
p215
aV0#0_8
p216
aV0#0_6
p217
aV0#0_7
p218
aV0#0_4
p219
aV0#0_5
p220
aV0#0_2
p221
aV0#0_3
p222
aV0#0_0
p223
aV0#0_1
p224
aV3#3_24
p225
aV3#3_25
p226
aV3#3_26
p227
aV3#3_22
p228
aV3#3_23
p229
aV2#2_19
p230
aV2#2_21
p231
aV2#2_20
p232
aV5#5_39
p233
aV5#5_38
p234
aV5#5_40
p235
aV5#5_41
p236
aV5#5_37
p237
aV5#5_36
p238
aV4#4_27
p239
aV4#4_29
p240
aV4#4_28
p241
aV4#4_32
p242
aV4#4_33
p243
aV4#4_30
p244
aV4#4_31
p245
aV4#4_34
p246
aV4#4_35
p247
aV7#7_51
p248
aV7#7_50
p249
aV6#6_49
p250
aV6#6_48
p251
aV6#6_45
p252
aV6#6_44
p253
aV6#6_47
p254
aV6#6_46
p255
aV6#6_43
p256
aV6#6_42
p257
aV9#9_59
p258
aV9#9_58
p259
aV9#9_57
p260
aV9#9_56
p261
aV9#9_55
p262
aV9#9_61
p263
aV9#9_62
p264
aV9#9_63
p265
aV9#9_60
p266
aV8#8_54
p267
aV8#8_52
p268
aV8#8_53
p269
asI154
(lp270
sI155
(lp271
sI156
(lp272
sI157
(lp273
sI158
(lp274
sI159
(lp275
sI160
(lp276
sI161
(lp277
sI162
(lp278
sI163
(lp279
sI164
(lp280
sI165
(lp281
sI166
(lp282
sI167
(lp283
sI168
(lp284
sI169
(lp285
V4#None
p286
aV0#None
p287
asI170
(lp288
sI171
(lp289
sI172
(lp290
V2#None
p291
asI173
(lp292
sI174
(lp293
sI175
(lp294
V3#3_24
p295
aV3#3_26
p296
aV6#6_49
p297
aV6#6_48
p298
aV6#6_45
p299
aV6#6_47
p300
aV6#6_46
p301
asI176
(lp302
V3#3_24
p303
aV3#3_26
p304
asI177
(lp305
sI178
(lp306
V2#None
p307
asI179
(lp308
sI180
(lp309
sI181
(lp310
sI182
(lp311
sI183
(lp312
sI184
(lp313
sI185
(lp314
sI186
(lp315
sI187
(lp316
V5#None
p317
asI188
(lp318
sI189
(lp319
sI190
(lp320
sI191
(lp321
sI192
(lp322
sI193
(lp323
V0#0_0
p324
aV4#4_27
p325
asI194
(lp326
V6#None
p327
aV3#None
p328
aV0#0_4
p329
aV0#0_2
p330
aV0#0_1
p331
aV4#4_29
p332
aV4#4_28
p333
asI195
(lp334
V2#None
p335
asI196
(lp336
V1#None
p337
aV3#None
p338
asI197
(lp339
V9#None
p340
asI198
(lp341
V7#None
p342
asI199
(lp343
V8#None
p344
aV1#1_9
p345
aV3#3_22
p346
aV7#7_50
p347
as.