(dp0
(I199
V1_18
p1
tp2
((lp3
I199
aI197
aI173
aI110
aI98
aI57
a(lp4
I127
atp5
s(I57
V1_14
p6
tp7
((lp8
I57
aI6
aI15
aI58
a(lp9
I159
atp10
s(I108
V6_46
p11
tp12
((lp13
I108
aI109
aI106
aI175
a(lp14
I116
atp15
s(I194
V4_31
p16
tp17
((lp18
I194
aI190
aI83
aI2
aI107
aI84
a(lp19
I151
atp20
s(I194
V4_35
p21
tp22
(g18
(lp23
I150
atp24
s(I95
V5_38
p25
tp26
((lp27
I95
aI5
aI6
aI57
a(lp28
I90
atp29
s(I57
V9_59
p30
tp31
(g8
(lp32
I97
atp33
s(I108
V2_20
p34
tp35
(g13
(lp36
I131
atp37
s(I199
V7_51
p38
tp39
(g3
(lp40
I152
atp41
s(I194
V3_22
p42
tp43
(g18
(lp44
I102
atp45
s(I169
V0_0
p46
tp47
((lp48
I169
aI112
aI3
aI6
aI85
aI177
aI193
a(lp49
I78
atp50
s(I187
V5_36
p51
tp52
((lp53
I187
aI112
aI95
a(lp54
I83
atp55
s(I194
V0_6
p56
tp57
(g18
(lp58
I136
atp59
s(I199
V1_10
p60
tp61
(g3
(lp62
I122
atp63
s(I57
V9_58
p64
tp65
(g8
(lp66
I96
atp67
s(I84
V3_25
p68
tp69
((lp70
I84
aI7
aI108
a(lp71
I129
atp72
s(I57
V9_56
p73
tp74
(g8
(lp75
I95
atp76
s(I172
V2_19
p77
tp78
((lp79
I172
aI64
aI105
aI112
aI110
a(lp80
I149
atp81
s(I193
V0_1
p82
tp83
((lp84
I193
aI177
aI85
aI6
aI0
aI109
aI190
aI194
a(lp85
I103
atp86
s(I57
V9_61
p87
tp88
(g8
(lp89
I98
atp90
s(I197
V9_55
p91
tp92
((lp93
I197
aI173
aI110
aI98
aI57
a(lp94
I86
atp95
s(I195
g77
tp96
((lp97
I195
aI175
aI106
aI109
a(lp98
I128
atp99
s(I57
V5_39
p100
tp101
(g8
(lp102
I107
atp103
s(I95
V5_41
p104
tp105
(g27
(lp106
I88
atp107
s(I194
V6_42
p108
tp109
(g18
(lp110
I91
atp111
s(I105
V9_62
p112
tp113
((lp114
I105
aI7
aI3
aI94
a(lp115
I143
atp116
s(I109
g34
tp117
((lp118
I109
aI0
aI103
aI176
a(lp119
I139
atp120
s(I109
V2_21
p121
tp122
(g118
(lp123
I140
atp124
s(I108
V6_45
p125
tp126
(g13
(lp127
I109
atp128
s(I169
V4_27
p129
tp130
(g48
(lp131
I81
atp132
s(I110
g34
tp133
((lp134
I110
aI4
aI7
a(lp135
I153
atp136
s(I110
g121
tp137
(g134
(lp138
I154
atp139
s(I199
V1_11
p140
tp141
(g3
(lp142
I123
atp143
s(I108
V3_24
p144
tp145
(g13
(lp146
I145
atp147
s(I108
V4_34
p148
tp149
(g13
(lp150
I156
atp151
s(I194
V4_30
p152
tp153
(g18
(lp154
I147
atp155
s(I196
V1_9
p156
tp157
((lp158
I196
aI185
aI112
aI110
aI173
aI197
aI199
a(lp159
I93
atp160
s(I95
V5_37
p161
tp162
(g27
(lp163
I89
atp164
s(I108
V6_48
p165
tp166
(g13
(lp167
I115
atp168
s(I199
V1_15
p169
tp170
(g3
(lp171
I126
atp172
s(I178
g77
tp173
((lp174
I178
aI107
aI7
aI108
a(lp175
I113
atp176
s(I194
V0_7
p177
tp178
(g18
(lp179
I137
atp180
s(I193
V0_4
p181
tp182
(g84
(lp183
I105
atp184
s(I193
V4_28
p185
tp186
(g84
(lp187
I118
atp188
s(I199
g68
tp189
((lp190
I199
aI197
aI173
aI110
aI0
aI109
a(lp191
I141
atp192
s(I84
V6_43
p193
tp194
(g70
(lp195
I100
atp196
s(I105
V9_63
p197
tp198
(g114
(lp199
I144
atp200
s(I58
V9_57
p201
tp202
((lp203
I58
aI15
aI7
aI105
a(lp204
I120
atp205
s(I108
V6_49
p206
tp207
(g13
(lp208
I108
atp209
s(I84
V4_33
p210
tp211
(g70
(lp212
I155
atp213
s(I58
V9_60
p214
tp215
(g203
(lp216
I138
atp217
s(I84
V6_44
p218
tp219
(g70
(lp220
I101
atp221
s(I57
V5_40
p222
tp223
(g8
(lp224
I106
atp225
s(I108
g121
tp226
(g13
(lp227
I132
atp228
s(I199
V1_12
p229
tp230
(g3
(lp231
I124
atp232
s(I84
V3_23
p233
tp234
(g70
(lp235
I130
atp236
s(I193
V4_29
p237
tp238
(g84
(lp239
I119
atp240
s(I57
V1_16
p241
tp242
(g8
(lp243
I158
atp244
s(I194
V0_3
p245
tp246
(g18
(lp247
I134
atp248
s(I108
V6_47
p249
tp250
(g13
(lp251
I110
atp252
s(I199
V8_52
p253
tp254
(g3
(lp255
I77
atp256
s(I84
V4_32
p257
tp258
(g70
(lp259
I157
atp260
s(I57
V1_17
p261
tp262
(g8
(lp263
I160
atp264
s(I57
V8_53
p265
tp266
(g8
(lp267
I94
atp268
s(I108
V3_26
p269
tp270
(g13
(lp271
I146
atp272
s(I194
V0_8
p273
tp274
(g18
(lp275
I133
atp276
s(I199
g233
tp277
(g190
(lp278
I142
atp279
s(I193
V0_2
p280
tp281
(g84
(lp282
I104
atp283
s(I58
V8_54
p284
tp285
(g203
(lp286
I114
atp287
s(I199
V1_13
p288
tp289
(g3
(lp290
I125
atp291
s(I194
V0_5
p292
tp293
(g18
(lp294
I135
atp295
s(I198
V7_50
p296
tp297
((lp298
I198
aI196
aI185
aI112
aI110
aI173
aI197
aI199
a(lp299
I117
atp300
s(I196
g42
tp301
(g158
(lp302
I111
atp303
s.