(dp0
(I199
V1_18
p1
tp2
((lp3
I199
aI197
aI173
aI110
aI98
aI57
a(lp4
I137
atp5
s(I57
V1_14
p6
tp7
((lp8
I57
aI6
aI15
aI58
a(lp9
I160
atp10
s(I108
V6_46
p11
tp12
((lp13
I108
aI109
aI106
aI175
a(lp14
I141
atp15
s(I193
V0_4
p16
tp17
((lp18
I193
aI177
aI85
aI6
aI0
aI109
aI190
aI194
a(lp19
I148
atp20
s(I194
V4_35
p21
tp22
((lp23
I194
aI190
aI83
aI2
aI107
aI84
a(lp24
I143
atp25
s(I108
V4_34
p26
tp27
(g13
(lp28
I149
atp29
s(I95
V5_38
p30
tp31
((lp32
I95
aI5
aI6
aI57
a(lp33
I93
atp34
s(I57
V9_59
p35
tp36
(g8
(lp37
I96
atp38
s(I199
V1_15
p39
tp40
(g3
(lp41
I136
atp42
s(I199
V7_51
p43
tp44
(g3
(lp45
I125
atp46
s(I194
V3_22
p47
tp48
(g23
(lp49
I98
atp50
s(I169
V0_0
p51
tp52
((lp53
I169
aI112
aI3
aI6
aI85
aI177
aI193
a(lp54
I128
atp55
s(I196
g47
tp56
((lp57
I196
aI185
aI112
aI110
aI173
aI197
aI199
a(lp58
I89
atp59
s(I194
V0_6
p60
tp61
(g23
(lp62
I157
atp63
s(I199
V1_10
p64
tp65
(g3
(lp66
I132
atp67
s(I57
V8_53
p68
tp69
(g8
(lp70
I153
atp71
s(I84
V3_25
p72
tp73
((lp74
I84
aI7
aI108
a(lp75
I108
atp76
s(I57
V9_56
p77
tp78
(g8
(lp79
I94
atp80
s(I172
V2_19
p81
tp82
((lp83
I172
aI90
aI104
aI109
a(lp84
I106
atp85
s(I193
V0_1
p86
tp87
(g18
(lp88
I146
atp89
s(I57
V9_61
p90
tp91
(g8
(lp92
I97
atp93
s(I197
V9_55
p94
tp95
((lp96
I197
aI173
aI110
aI98
aI57
a(lp97
I81
atp98
s(I195
g81
tp99
((lp100
I195
aI175
aI106
aI15
aI99
aI176
a(lp101
I85
atp102
s(I57
V5_39
p103
tp104
(g8
(lp105
I115
atp106
s(I95
V5_41
p107
tp108
(g32
(lp109
I91
atp110
s(I194
V6_42
p111
tp112
(g23
(lp113
I99
atp114
s(I105
V9_62
p115
tp116
((lp117
I105
aI7
aI3
aI94
a(lp118
I138
atp119
s(I109
V2_20
p120
tp121
((lp122
I109
aI3
aI7
aI105
a(lp123
I120
atp124
s(I108
V6_45
p125
tp126
(g13
(lp127
I130
atp128
s(I109
V2_21
p129
tp130
(g122
(lp131
I121
atp132
s(I199
V1_11
p133
tp134
(g3
(lp135
I133
atp136
s(I108
V3_24
p137
tp138
(g13
(lp139
I126
atp140
s(I176
g129
tp141
((lp142
I176
aI99
aI15
aI78
a(lp143
I101
atp144
s(I194
V4_30
p145
tp146
(g23
(lp147
I142
atp148
s(I199
V1_12
p149
tp150
(g3
(lp151
I134
atp152
s(I196
V1_9
p153
tp154
(g57
(lp155
I90
atp156
s(I95
V5_37
p157
tp158
(g32
(lp159
I92
atp160
s(I108
V6_48
p161
tp162
(g13
(lp163
I140
atp164
s(I108
g120
tp165
((lp166
I108
aI109
aI79
a(lp167
I123
atp168
s(I178
g81
tp169
((lp170
I178
aI107
aI7
aI108
a(lp171
I104
atp172
s(I194
V4_31
p173
tp174
(g23
(lp175
I144
atp176
s(I169
V4_27
p177
tp178
(g53
(lp179
I82
atp180
s(I193
V4_28
p181
tp182
(g18
(lp183
I112
atp184
s(I84
V6_43
p185
tp186
(g74
(lp187
I118
atp188
s(I109
g137
tp189
((lp190
I109
aI0
aI103
aI176
a(lp191
I151
atp192
s(I105
V9_63
p193
tp194
(g117
(lp195
I139
atp196
s(I58
V9_57
p197
tp198
((lp199
I58
aI15
aI7
aI105
a(lp200
I105
atp201
s(I108
V6_49
p202
tp203
(g13
(lp204
I129
atp205
s(I84
V4_33
p206
tp207
(g74
(lp208
I145
atp209
s(I176
g120
tp210
(g142
(lp211
I100
atp212
s(I58
V9_60
p213
tp214
(g199
(lp215
I122
atp216
s(I84
V6_44
p217
tp218
(g74
(lp219
I119
atp220
s(I57
V5_40
p221
tp222
(g8
(lp223
I114
atp224
s(I194
V0_7
p225
tp226
(g23
(lp227
I158
atp228
s(I108
g129
tp229
(g166
(lp230
I124
atp231
s(I84
V3_23
p232
tp233
(g74
(lp234
I109
atp235
s(I193
V4_29
p236
tp237
(g18
(lp238
I113
atp239
s(I57
V1_16
p240
tp241
(g8
(lp242
I159
atp243
s(I194
V0_3
p244
tp245
(g23
(lp246
I155
atp247
s(I108
V6_47
p248
tp249
(g13
(lp250
I131
atp251
s(I199
V8_52
p252
tp253
(g3
(lp254
I116
atp255
s(I84
V4_32
p256
tp257
(g74
(lp258
I150
atp259
s(I57
V1_17
p260
tp261
(g8
(lp262
I161
atp263
s(I57
V9_58
p264
tp265
(g8
(lp266
I95
atp267
s(I108
V3_26
p268
tp269
(g13
(lp270
I127
atp271
s(I194
V0_8
p272
tp273
(g23
(lp274
I154
atp275
s(I199
g232
tp276
((lp277
I199
aI197
aI173
aI110
aI0
aI109
a(lp278
I111
atp279
s(I193
V0_2
p280
tp281
(g18
(lp282
I147
atp283
s(I199
g72
tp284
(g277
(lp285
I110
atp286
s(I109
g268
tp287
(g190
(lp288
I152
atp289
s(I199
V1_13
p290
tp291
(g3
(lp292
I135
atp293
s(I194
V0_5
p294
tp295
(g23
(lp296
I156
atp297
s(I198
V7_50
p298
tp299
((lp300
I198
aI196
aI185
aI112
aI110
aI173
aI197
aI199
a(lp301
I86
atp302
s(I187
V5_36
p303
tp304
((lp305
I187
aI112
aI95
a(lp306
I88
atp307
s.