(dp0
I0
(lp1
sI1
(lp2
sI2
(lp3
sI3
(lp4
sI4
(lp5
sI5
(lp6
sI6
(lp7
sI7
(lp8
V2#2_21
p9
aV2#2_20
p10
asI8
(lp11
V2#2_21
p12
aV2#2_20
p13
asI9
(lp14
sI10
(lp15
sI11
(lp16
sI12
(lp17
sI13
(lp18
sI14
(lp19
sI15
(lp20
sI16
(lp21
sI17
(lp22
sI18
(lp23
sI19
(lp24
sI20
(lp25
sI21
(lp26
sI22
(lp27
sI23
(lp28
sI24
(lp29
sI25
(lp30
sI26
(lp31
sI27
(lp32
sI28
(lp33
sI29
(lp34
sI30
(lp35
sI31
(lp36
sI32
(lp37
sI33
(lp38
sI34
(lp39
sI35
(lp40
sI36
(lp41
sI37
(lp42
sI38
(lp43
sI39
(lp44
sI40
(lp45
sI41
(lp46
sI42
(lp47
sI43
(lp48
sI44
(lp49
sI45
(lp50
sI46
(lp51
sI47
(lp52
sI48
(lp53
sI49
(lp54
sI50
(lp55
sI51
(lp56
sI52
(lp57
sI53
(lp58
sI54
(lp59
sI55
(lp60
sI56
(lp61
sI57
(lp62
V1#1_18
p63
aV1#1_13
p64
aV1#1_12
p65
aV1#1_11
p66
aV1#1_10
p67
aV1#1_15
p68
aV5#5_38
p69
aV5#5_41
p70
aV5#5_37
p71
aV7#7_51
p72
aV9#9_55
p73
aV8#8_52
p74
asI58
(lp75
V1#1_17
p76
aV1#1_16
p77
aV1#1_14
p78
aV5#5_39
p79
aV5#5_40
p80
aV9#9_59
p81
aV9#9_58
p82
aV9#9_56
p83
aV9#9_61
p84
aV8#8_53
p85
asI59
(lp86
sI60
(lp87
sI61
(lp88
sI62
(lp89
sI63
(lp90
sI64
(lp91
sI65
(lp92
sI66
(lp93
sI67
(lp94
sI68
(lp95
sI69
(lp96
sI70
(lp97
sI71
(lp98
sI72
(lp99
sI73
(lp100
sI74
(lp101
sI75
(lp102
sI76
(lp103
sI77
(lp104
sI78
(lp105
sI79
(lp106
sI80
(lp107
sI81
(lp108
sI82
(lp109
sI83
(lp110
sI84
(lp111
V0#0_8
p112
aV0#0_6
p113
aV0#0_7
p114
aV0#0_5
p115
aV0#0_3
p116
aV3#3_22
p117
aV4#4_30
p118
aV4#4_31
p119
aV4#4_35
p120
aV6#6_42
p121
asI85
(lp122
sI86
(lp123
sI87
(lp124
sI88
(lp125
sI89
(lp126
sI90
(lp127
sI91
(lp128
V2#2_19
p129
asI92
(lp130
sI93
(lp131
sI94
(lp132
V9#9_62
p133
aV9#9_63
p134
asI95
(lp135
V5#5_36
p136
asI96
(lp137
sI97
(lp138
sI98
(lp139
sI99
(lp140
sI100
(lp141
sI101
(lp142
sI102
(lp143
sI103
(lp144
sI104
(lp145
sI105
(lp146
V9#9_57
p147
aV9#9_60
p148
aV8#8_54
p149
asI106
(lp150
sI107
(lp151
sI108
(lp152
V3#3_25
p153
aV3#3_23
p154
aV2#2_19
p155
aV4#4_32
p156
aV4#4_33
p157
aV6#6_44
p158
aV6#6_43
p159
asI109
(lp160
V3#3_25
p161
aV3#3_23
p162
asI110
(lp163
sI111
(lp164
sI112
(lp165
sI113
(lp166
sI114
(lp167
sI115
(lp168
sI116
(lp169
sI117
(lp170
sI118
(lp171
sI119
(lp172
sI120
(lp173
sI121
(lp174
sI122
(lp175
sI123
(lp176
sI124
(lp177
sI125
(lp178
sI126
(lp179
sI127
(lp180
sI128
(lp181
sI129
(lp182
sI130
(lp183
sI131
(lp184
sI132
(lp185
sI133
(lp186
sI134
(lp187
sI135
(lp188
sI136
(lp189
sI137
(lp190
sI138
(lp191
sI139
(lp192
sI140
(lp193
sI141
(lp194
sI142
(lp195
sI143
(lp196
sI144
(lp197
sI145
(lp198
sI146
(lp199
sI147
(lp200
sI148
(lp201
sI149
(lp202
sI150
(lp203
sI151
(lp204
sI152
(lp205
sI153
(lp206
V1#1_18
p207
aV1#1_13
p208
aV1#1_12
p209
aV1#1_11
p210
aV1#1_10
p211
aV1#1_17
p212
aV1#1_16
p213
aV1#1_15
p214
aV1#1_14
p215
aV1#1_9
p216
aV0#0_8
p217
aV0#0_6
p218
aV0#0_7
p219
aV0#0_4
p220
aV0#0_5
p221
aV0#0_2
p222
aV0#0_3
p223
aV0#0_0
p224
aV0#0_1
p225
aV3#3_24
p226
aV3#3_25
p227
aV3#3_26
p228
aV3#3_22
p229
aV3#3_23
p230
aV2#2_19
p231
aV2#2_21
p232
aV2#2_20
p233
aV5#5_39
p234
aV5#5_38
p235
aV5#5_40
p236
aV5#5_41
p237
aV5#5_37
p238
aV5#5_36
p239
aV4#4_27
p240
aV4#4_29
p241
aV4#4_28
p242
aV4#4_32
p243
aV4#4_33
p244
aV4#4_30
p245
aV4#4_31
p246
aV4#4_34
p247
aV4#4_35
p248
aV7#7_51
p249
aV7#7_50
p250
aV6#6_49
p251
aV6#6_48
p252
aV6#6_45
p253
aV6#6_44
p254
aV6#6_47
p255
aV6#6_46
p256
aV6#6_43
p257
aV6#6_42
p258
aV9#9_59
p259
aV9#9_58
p260
aV9#9_57
p261
aV9#9_56
p262
aV9#9_55
p263
aV9#9_61
p264
aV9#9_62
p265
aV9#9_63
p266
aV9#9_60
p267
aV8#8_54
p268
aV8#8_52
p269
aV8#8_53
p270
asI154
(lp271
sI155
(lp272
sI156
(lp273
sI157
(lp274
sI158
(lp275
sI159
(lp276
sI160
(lp277
sI161
(lp278
sI162
(lp279
sI163
(lp280
sI164
(lp281
sI165
(lp282
sI166
(lp283
sI167
(lp284
sI168
(lp285
sI169
(lp286
V4#None
p287
aV0#None
p288
asI170
(lp289
sI171
(lp290
sI172
(lp291
V2#None
p292
asI173
(lp293
sI174
(lp294
sI175
(lp295
V3#3_24
p296
aV3#3_26
p297
aV4#4_34
p298
aV6#6_49
p299
aV6#6_48
p300
aV6#6_45
p301
aV6#6_47
p302
aV6#6_46
p303
asI176
(lp304
V3#3_24
p305
aV3#3_26
p306
aV2#2_19
p307
asI177
(lp308
sI178
(lp309
V2#None
p310
asI179
(lp311
sI180
(lp312
sI181
(lp313
sI182
(lp314
sI183
(lp315
sI184
(lp316
sI185
(lp317
sI186
(lp318
sI187
(lp319
V5#None
p320
asI188
(lp321
sI189
(lp322
sI190
(lp323
sI191
(lp324
sI192
(lp325
sI193
(lp326
V0#0_0
p327
aV4#4_27
p328
asI194
(lp329
V6#None
p330
aV3#None
p331
aV0#0_4
p332
aV0#0_2
p333
aV0#0_1
p334
aV4#4_29
p335
aV4#4_28
p336
asI195
(lp337
V2#None
p338
asI196
(lp339
V3#None
p340
aV1#None
p341
asI197
(lp342
V9#None
p343
asI198
(lp344
V7#None
p345
asI199
(lp346
V8#None
p347
aV1#1_9
p348
aV3#3_22
p349
aV7#7_50
p350
as.