(dp0
(I199
V1_18
p1
tp2
((lp3
I199
aI197
aI173
aI110
aI98
aI57
a(lp4
I150
atp5
s(I108
V6_46
p6
tp7
((lp8
I108
aI109
aI106
aI175
a(lp9
I121
atp10
s(I194
V4_35
p11
tp12
((lp13
I194
aI190
aI83
aI2
aI107
aI84
a(lp14
I138
atp15
s(I199
V1_15
p16
tp17
(g3
(lp18
I149
atp19
s(I58
V8_54
p20
tp21
((lp22
I58
aI15
aI7
aI105
a(lp23
I159
atp24
s(I95
V5_38
p25
tp26
((lp27
I95
aI5
aI6
aI57
a(lp28
I97
atp29
s(I57
V9_59
p30
tp31
((lp32
I57
aI6
aI15
aI58
a(lp33
I104
atp34
s(I105
V9_63
p35
tp36
((lp37
I105
aI7
aI3
aI94
a(lp38
I135
atp39
s(I92
V2_21
p40
tp41
((lp42
I92
aI5
aI93
a(lp43
I110
atp44
s(I199
V7_51
p45
tp46
(g3
(lp47
I136
atp48
s(I194
V3_22
p49
tp50
(g13
(lp51
I94
atp52
s(I169
V0_0
p53
tp54
((lp55
I169
aI112
aI3
aI6
aI85
aI177
aI193
a(lp56
I111
atp57
s(I196
g49
tp58
((lp59
I196
aI185
aI112
aI110
aI173
aI197
aI199
a(lp60
I88
atp61
s(I199
V1_10
p62
tp63
(g3
(lp64
I145
atp65
s(I84
V4_33
p66
tp67
((lp68
I84
aI7
aI108
a(lp69
I143
atp70
s(I57
V8_53
p71
tp72
(g32
(lp73
I131
atp74
s(I84
V3_25
p75
tp76
(g68
(lp77
I122
atp78
s(I57
V9_56
p79
tp80
(g32
(lp81
I102
atp82
s(I172
V2_19
p83
tp84
((lp85
I172
aI90
aI2
aI5
aI91
a(lp86
I84
atp87
s(I193
V0_1
p88
tp89
((lp90
I193
aI177
aI85
aI6
aI0
aI109
aI190
aI194
a(lp91
I140
atp92
s(I57
V3_24
p93
tp94
(g32
(lp95
I157
atp96
s(I57
V9_61
p97
tp98
(g32
(lp99
I105
atp100
s(I197
V9_55
p101
tp102
((lp103
I197
aI173
aI110
aI98
aI57
a(lp104
I81
atp105
s(I195
g83
tp106
((lp107
I195
aI175
aI106
aI109
aI188
aI92
a(lp108
I85
atp109
s(I57
V5_39
p110
tp111
(g32
(lp112
I127
atp113
s(I95
V5_41
p114
tp115
(g27
(lp116
I95
atp117
s(I194
V6_42
p118
tp119
(g13
(lp120
I87
atp121
s(I105
V9_62
p122
tp123
(g37
(lp124
I134
atp125
s(I108
V6_45
p126
tp127
(g8
(lp128
I114
atp129
s(I193
V0_4
p130
tp131
(g90
(lp132
I142
atp133
s(I92
V2_20
p134
tp135
(g42
(lp136
I109
atp137
s(I194
V0_6
p138
tp139
(g13
(lp140
I155
atp141
s(I199
V1_11
p142
tp143
(g3
(lp144
I146
atp145
s(I193
V4_28
p146
tp147
(g90
(lp148
I124
atp149
s(I194
V4_30
p150
tp151
(g13
(lp152
I137
atp153
s(I199
V3_23
p154
tp155
(g3
(lp156
I117
atp157
s(I95
V5_37
p158
tp159
(g27
(lp160
I96
atp161
s(I108
V6_48
p162
tp163
(g8
(lp164
I120
atp165
s(I108
g134
tp166
((lp167
I108
aI67
aI4
aI8
a(lp168
I128
atp169
s(I178
g83
tp170
((lp171
I178
aI107
aI7
aI108
a(lp172
I112
atp173
s(I194
V0_7
p174
tp175
(g13
(lp176
I156
atp177
s(I169
V4_27
p178
tp179
(g55
(lp180
I82
atp181
s(I91
g134
tp182
((lp183
I91
aI5
aI7
a(lp184
I98
atp185
s(I108
g93
tp186
(g8
(lp187
I132
atp188
s(I84
V6_43
p189
tp190
(g68
(lp191
I107
atp192
s(I58
V9_57
p193
tp194
(g22
(lp195
I118
atp196
s(I199
V1_12
p197
tp198
(g3
(lp199
I147
atp200
s(I108
V6_49
p201
tp202
(g8
(lp203
I113
atp204
s(I108
V4_34
p205
tp206
(g8
(lp207
I144
atp208
s(I58
V9_60
p209
tp210
(g22
(lp211
I130
atp212
s(I84
V6_44
p213
tp214
(g68
(lp215
I108
atp216
s(I57
V5_40
p217
tp218
(g32
(lp219
I126
atp220
s(I199
V1_13
p221
tp222
(g3
(lp223
I148
atp224
s(I108
g40
tp225
(g167
(lp226
I129
atp227
s(I84
g154
tp228
(g68
(lp229
I123
atp230
s(I193
V4_29
p231
tp232
(g90
(lp233
I125
atp234
s(I91
g40
tp235
(g183
(lp236
I99
atp237
s(I194
V0_3
p238
tp239
(g13
(lp240
I153
atp241
s(I108
V6_47
p242
tp243
(g8
(lp244
I115
atp245
s(I199
V8_52
p246
tp247
(g3
(lp248
I92
atp249
s(I84
V4_32
p250
tp251
(g68
(lp252
I151
atp253
s(I57
V9_58
p254
tp255
(g32
(lp256
I103
atp257
s(I108
V3_26
p258
tp259
(g8
(lp260
I133
atp261
s(I194
V0_8
p262
tp263
(g13
(lp264
I152
atp265
s(I193
V0_2
p266
tp267
(g90
(lp268
I141
atp269
s(I199
g75
tp270
(g3
(lp271
I116
atp272
s(I196
V1_9
p273
tp274
(g59
(lp275
I119
atp276
s(I57
g258
tp277
(g32
(lp278
I158
atp279
s(I194
V4_31
p280
tp281
(g13
(lp282
I139
atp283
s(I194
V0_5
p284
tp285
(g13
(lp286
I154
atp287
s(I198
V7_50
p288
tp289
((lp290
I198
aI196
aI185
aI112
aI110
aI173
aI197
aI199
a(lp291
I100
atp292
s(I187
V5_36
p293
tp294
((lp295
I187
aI112
aI95
a(lp296
I91
atp297
s.