(dp0
I0
(lp1
sI1
(lp2
sI2
(lp3
sI3
(lp4
sI4
(lp5
sI5
(lp6
sI6
(lp7
sI7
(lp8
sI8
(lp9
sI9
(lp10
sI10
(lp11
sI11
(lp12
sI12
(lp13
sI13
(lp14
sI14
(lp15
sI15
(lp16
sI16
(lp17
sI17
(lp18
sI18
(lp19
sI19
(lp20
sI20
(lp21
sI21
(lp22
sI22
(lp23
sI23
(lp24
sI24
(lp25
sI25
(lp26
sI26
(lp27
sI27
(lp28
sI28
(lp29
sI29
(lp30
sI30
(lp31
sI31
(lp32
sI32
(lp33
sI33
(lp34
sI34
(lp35
sI35
(lp36
sI36
(lp37
sI37
(lp38
sI38
(lp39
sI39
(lp40
sI40
(lp41
sI41
(lp42
sI42
(lp43
sI43
(lp44
sI44
(lp45
sI45
(lp46
sI46
(lp47
sI47
(lp48
sI48
(lp49
sI49
(lp50
sI50
(lp51
sI51
(lp52
sI52
(lp53
sI53
(lp54
sI54
(lp55
sI55
(lp56
sI56
(lp57
sI57
(lp58
sI58
(lp59
sI59
(lp60
sI60
(lp61
sI61
(lp62
sI62
(lp63
sI63
(lp64
sI64
(lp65
sI65
(lp66
sI66
(lp67
sI67
(lp68
sI68
(lp69
sI69
(lp70
sI70
(lp71
sI71
(lp72
sI72
(lp73
sI73
(lp74
sI74
(lp75
sI75
(lp76
sI76
(lp77
sI77
(lp78
sI78
(lp79
sI79
(lp80
sI80
(lp81
sI81
(lp82
sI82
(lp83
sI83
(lp84
sI84
(lp85
sI85
(lp86
sI86
(lp87
sI87
(lp88
sI88
(lp89
sI89
(lp90
sI90
(lp91
sI91
(lp92
sI92
(lp93
sI93
(lp94
sI94
(lp95
sI95
(lp96
sI96
(lp97
sI97
(lp98
sI98
(lp99
sI99
(lp100
sI100
(lp101
sI101
(lp102
sI102
(lp103
sI103
(lp104
sI104
(lp105
sI105
(lp106
sI106
(lp107
sI107
(lp108
sI108
(lp109
sI109
(lp110
sI110
(lp111
sI111
(lp112
sI112
(lp113
sI113
(lp114
sI114
(lp115
sI115
(lp116
sI116
(lp117
sI117
(lp118
sI118
(lp119
sI119
(lp120
sI120
(lp121
sI121
(lp122
sI122
(lp123
sI123
(lp124
sI124
(lp125
sI125
(lp126
sI126
(lp127
sI127
(lp128
sI128
(lp129
sI129
(lp130
sI130
(lp131
sI131
(lp132
sI132
(lp133
sI133
(lp134
sI134
(lp135
sI135
(lp136
sI136
(lp137
sI137
(lp138
sI138
(lp139
sI139
(lp140
sI140
(lp141
sI141
(lp142
sI142
(lp143
sI143
(lp144
sI144
(lp145
sI145
(lp146
sI146
(lp147
sI147
(lp148
sI148
(lp149
sI149
(lp150
sI150
(lp151
sI151
(lp152
sI152
(lp153
sI153
(lp154
V1#1_18
p155
aV1#1_13
p156
aV1#1_12
p157
aV1#1_11
p158
aV1#1_10
p159
aV1#1_17
p160
aV1#1_16
p161
aV1#1_15
p162
aV1#1_14
p163
aV1#1_9
p164
aV0#0_8
p165
aV0#0_6
p166
aV0#0_7
p167
aV0#0_4
p168
aV0#0_5
p169
aV0#0_2
p170
aV0#0_3
p171
aV0#0_0
p172
aV0#0_1
p173
aV3#3_24
p174
aV3#3_25
p175
aV3#3_26
p176
aV3#3_22
p177
aV3#3_23
p178
aV2#2_19
p179
aV2#2_21
p180
aV2#2_20
p181
aV5#5_39
p182
aV5#5_38
p183
aV5#5_40
p184
aV5#5_41
p185
aV5#5_37
p186
aV5#5_36
p187
aV4#4_27
p188
aV4#4_29
p189
aV4#4_28
p190
aV4#4_32
p191
aV4#4_33
p192
aV4#4_30
p193
aV4#4_31
p194
aV4#4_34
p195
aV4#4_35
p196
aV7#7_51
p197
aV7#7_50
p198
aV6#6_49
p199
aV6#6_48
p200
aV6#6_45
p201
aV6#6_44
p202
aV6#6_47
p203
aV6#6_46
p204
aV6#6_43
p205
aV6#6_42
p206
aV9#9_59
p207
aV9#9_58
p208
aV9#9_57
p209
aV9#9_56
p210
aV9#9_55
p211
aV9#9_61
p212
aV9#9_62
p213
aV9#9_63
p214
aV9#9_60
p215
aV8#8_54
p216
aV8#8_52
p217
aV8#8_53
p218
asI154
(lp219
sI155
(lp220
sI156
(lp221
sI157
(lp222
sI158
(lp223
sI159
(lp224
sI160
(lp225
sI161
(lp226
sI162
(lp227
sI163
(lp228
sI164
(lp229
sI165
(lp230
sI166
(lp231
sI167
(lp232
sI168
(lp233
sI169
(lp234
V0#None
p235
aV4#None
p236
aV0#0_8
p237
aV0#0_6
p238
aV0#0_7
p239
aV0#0_4
p240
aV0#0_5
p241
aV0#0_2
p242
aV0#0_3
p243
aV0#0_0
p244
aV0#0_1
p245
aV4#4_27
p246
aV4#4_29
p247
aV4#4_28
p248
aV4#4_32
p249
aV4#4_33
p250
aV4#4_30
p251
aV4#4_31
p252
aV4#4_34
p253
aV4#4_35
p254
asI170
(lp255
sI171
(lp256
sI172
(lp257
V2#None
p258
aV2#2_19
p259
aV2#2_21
p260
aV2#2_20
p261
asI173
(lp262
sI174
(lp263
sI175
(lp264
sI176
(lp265
sI177
(lp266
sI178
(lp267
V2#None
p268
asI179
(lp269
sI180
(lp270
sI181
(lp271
sI182
(lp272
sI183
(lp273
sI184
(lp274
sI185
(lp275
sI186
(lp276
sI187
(lp277
V5#None
p278
asI188
(lp279
sI189
(lp280
sI190
(lp281
V3#3_24
p282
aV3#3_25
p283
aV3#3_26
p284
aV3#3_22
p285
aV3#3_23
p286
aV6#6_49
p287
aV6#6_48
p288
aV6#6_45
p289
aV6#6_44
p290
aV6#6_47
p291
aV6#6_46
p292
aV6#6_43
p293
aV6#6_42
p294
asI191
(lp295
sI192
(lp296
sI193
(lp297
sI194
(lp298
V6#None
p299
aV3#None
p300
asI195
(lp301
V2#None
p302
aV2#2_19
p303
aV2#2_21
p304
aV2#2_20
p305
asI196
(lp306
V1#None
p307
aV3#None
p308
aV1#1_18
p309
aV1#1_13
p310
aV1#1_12
p311
aV1#1_11
p312
aV1#1_10
p313
aV1#1_17
p314
aV1#1_16
p315
aV1#1_15
p316
aV1#1_14
p317
aV1#1_9
p318
aV3#3_24
p319
aV3#3_25
p320
aV3#3_26
p321
aV3#3_22
p322
aV3#3_23
p323
asI197
(lp324
V9#None
p325
aV9#9_59
p326
aV9#9_58
p327
aV9#9_57
p328
aV9#9_56
p329
aV9#9_55
p330
aV9#9_61
p331
aV9#9_62
p332
aV9#9_63
p333
aV9#9_60
p334
asI198
(lp335
V7#None
p336
aV7#7_51
p337
aV7#7_50
p338
asI199
(lp339
V8#None
p340
aV8#8_54
p341
aV8#8_52
p342
aV8#8_53
p343
as.