(dp0
(I153
V5_37
p1
tp2
((lp3
I153
a(lp4
I37
atp5
s(I197
V9_63
p6
tp7
((lp8
I197
a(lp9
I117
atp10
s(I172
V2_20
p11
tp12
((lp13
I172
a(lp14
I141
atp15
s(I169
V0_5
p16
tp17
((lp18
I169
a(lp19
I112
atp20
s(I197
V9_56
p21
tp22
(g8
(lp23
I102
atp24
s(I196
V3_26
p25
tp26
((lp27
I196
a(lp28
I108
atp29
s(I190
V3_23
p30
tp31
((lp32
I190
a(lp33
I144
atp34
s(I190
V6_47
p35
tp36
(g32
(lp37
I123
atp38
s(I196
V1_17
p39
tp40
(g27
(lp41
I106
atp42
s(I169
V0_0
p43
tp44
(g18
(lp45
I92
atp46
s(I196
V3_22
p47
tp48
(g27
(lp49
I82
atp50
s(I169
V4_31
p51
tp52
(g18
(lp53
I134
atp54
s(I196
V7_51
p55
tp56
(g27
(lp57
I153
atp58
s(I190
V6_46
p59
tp60
(g32
(lp61
I125
atp62
s(I190
V6_44
p63
tp64
(g32
(lp65
I120
atp66
s(I197
V9_62
p67
tp68
(g8
(lp69
I116
atp70
s(I169
V0_4
p71
tp72
(g18
(lp73
I101
atp74
s(I169
V4_30
p75
tp76
(g18
(lp77
I132
atp78
s(I197
V9_55
p79
tp80
(g8
(lp81
I85
atp82
s(I190
V6_45
p83
tp84
(g32
(lp85
I122
atp86
s(I194
V6_42
p87
tp88
((lp89
I194
aI190
a(lp90
I118
atp91
s(I153
V5_38
p92
tp93
(g3
(lp94
I38
atp95
s(I172
V2_19
p96
tp97
(g13
(lp98
I140
atp99
s(I197
V9_58
p100
tp101
(g8
(lp102
I103
atp103
s(I169
V0_8
p104
tp105
(g18
(lp106
I110
atp107
s(I169
V4_33
p108
tp109
(g18
(lp110
I136
atp111
s(I196
V1_16
p112
tp113
(g27
(lp114
I97
atp115
s(I169
V0_3
p116
tp117
(g18
(lp118
I111
atp119
s(I196
g30
tp120
(g27
(lp121
I96
atp122
s(I153
V2_21
p123
tp124
(g3
(lp125
I21
atp126
s(I197
V9_57
p127
tp128
(g8
(lp129
I109
atp130
s(I153
g11
tp131
(g3
(lp132
I20
atp133
s(I169
V4_32
p134
tp135
(g18
(lp136
I135
atp137
s(I196
V1_9
p138
tp139
(g27
(lp140
I78
atp141
s(I195
g11
tp142
((lp143
I195
a(lp144
I149
atp145
s(I190
V3_24
p146
tp147
(g32
(lp148
I145
atp149
s(I196
V1_11
p150
tp151
(g27
(lp152
I87
atp153
s(I169
V4_35
p154
tp155
(g18
(lp156
I133
atp157
s(I178
g96
tp158
((lp159
I178
aI107
aI7
aI74
aI153
a(lp160
I19
atp161
s(I153
V5_39
p162
tp163
(g3
(lp164
I39
atp165
s(I197
V9_61
p166
tp167
(g8
(lp168
I105
atp169
s(I197
V9_59
p170
tp171
(g8
(lp172
I104
atp173
s(I190
V6_49
p174
tp175
(g32
(lp176
I121
atp177
s(I190
V6_43
p178
tp179
(g32
(lp180
I119
atp181
s(I169
V4_27
p182
tp183
(g18
(lp184
I128
atp185
s(I199
V8_53
p186
tp187
((lp188
I199
a(lp189
I84
atp190
s(I169
V0_2
p191
tp192
(g18
(lp193
I100
atp194
s(I196
V1_15
p195
tp196
(g27
(lp197
I90
atp198
s(I190
V3_25
p199
tp200
(g32
(lp201
I143
atp202
s(I195
g123
tp203
(g143
(lp204
I150
atp205
s(I199
V8_54
p206
tp207
(g188
(lp208
I94
atp209
s(I169
V0_6
p210
tp211
(g18
(lp212
I113
atp213
s(I196
g146
tp214
(g27
(lp215
I107
atp216
s(I153
V5_41
p217
tp218
(g3
(lp219
I41
atp220
s(I196
V1_10
p221
tp222
(g27
(lp223
I86
atp224
s(I195
g96
tp225
(g143
(lp226
I148
atp227
s(I196
V1_13
p228
tp229
(g27
(lp230
I89
atp231
s(I197
V9_60
p232
tp233
(g8
(lp234
I115
atp235
s(I172
g123
tp236
(g13
(lp237
I142
atp238
s(I190
V6_48
p239
tp240
(g32
(lp241
I124
atp242
s(I199
V8_52
p243
tp244
(g188
(lp245
I80
atp246
s(I196
V1_12
p247
tp248
(g27
(lp249
I88
atp250
s(I196
g199
tp251
(g27
(lp252
I95
atp253
s(I169
V0_7
p254
tp255
(g18
(lp256
I114
atp257
s(I169
V4_28
p258
tp259
(g18
(lp260
I129
atp261
s(I194
g47
tp262
(g89
(lp263
I139
atp264
s(I196
V1_18
p265
tp266
(g27
(lp267
I91
atp268
s(I169
V0_1
p269
tp270
(g18
(lp271
I99
atp272
s(I169
V4_34
p273
tp274
(g18
(lp275
I137
atp276
s(I153
V5_40
p277
tp278
(g3
(lp279
I40
atp280
s(I190
g25
tp281
(g32
(lp282
I146
atp283
s(I169
V4_29
p284
tp285
(g18
(lp286
I130
atp287
s(I196
V1_14
p288
tp289
(g27
(lp290
I98
atp291
s(I198
V7_50
p292
tp293
((lp294
I198
aI196
a(lp295
I151
atp296
s(I187
V5_36
p297
tp298
((lp299
I187
aI112
aI100
aI74
aI153
a(lp300
I36
atp301
s.