(dp0
(I153
V5_37
p1
tp2
((lp3
I153
a(lp4
I37
atp5
s(I197
V9_63
p6
tp7
((lp8
I197
a(lp9
I113
atp10
s(I172
V2_20
p11
tp12
((lp13
I172
a(lp14
I141
atp15
s(I169
V4_31
p16
tp17
((lp18
I169
a(lp19
I116
atp20
s(I169
V4_28
p21
tp22
(g18
(lp23
I100
atp24
s(I196
V3_26
p25
tp26
((lp27
I196
a(lp28
I104
atp29
s(I190
V3_23
p30
tp31
((lp32
I190
a(lp33
I126
atp34
s(I169
V0_5
p35
tp36
(g18
(lp37
I129
atp38
s(I190
V6_46
p39
tp40
(g32
(lp41
I153
atp42
s(I194
V3_22
p43
tp44
((lp45
I194
aI190
a(lp46
I105
atp47
s(I169
V0_0
p48
tp49
(g18
(lp50
I102
atp51
s(I196
g43
tp52
(g27
(lp53
I89
atp54
s(I190
V6_45
p55
tp56
(g32
(lp57
I150
atp58
s(I169
V0_4
p59
tp60
(g18
(lp61
I119
atp62
s(I169
V0_6
p63
tp64
(g18
(lp65
I130
atp66
s(I197
V9_62
p67
tp68
(g8
(lp69
I112
atp70
s(I169
V4_30
p71
tp72
(g18
(lp73
I114
atp74
s(I197
V9_55
p75
tp76
(g8
(lp77
I83
atp78
s(I169
V0_7
p79
tp80
(g18
(lp81
I131
atp82
s(I169
V0_3
p83
tp84
(g18
(lp85
I128
atp86
s(I194
V6_42
p87
tp88
(g45
(lp89
I146
atp90
s(I153
V5_38
p91
tp92
(g3
(lp93
I38
atp94
s(I172
V2_19
p95
tp96
(g13
(lp97
I140
atp98
s(I197
V9_58
p99
tp100
(g8
(lp101
I86
atp102
s(I169
V0_8
p103
tp104
(g18
(lp105
I127
atp106
s(I196
V1_16
p107
tp108
(g27
(lp109
I120
atp110
s(I169
V4_27
p111
tp112
(g18
(lp113
I92
atp114
s(I196
g30
tp115
(g27
(lp116
I95
atp117
s(I153
V2_21
p118
tp119
(g3
(lp120
I21
atp121
s(I169
V4_29
p122
tp123
(g18
(lp124
I101
atp125
s(I153
g11
tp126
(g3
(lp127
I20
atp128
s(I197
V9_57
p129
tp130
(g8
(lp131
I91
atp132
s(I190
V6_43
p133
tp134
(g32
(lp135
I147
atp136
s(I196
V1_9
p137
tp138
(g27
(lp139
I98
atp140
s(I195
g11
tp141
((lp142
I195
a(lp143
I138
atp144
s(I190
V3_24
p145
tp146
(g32
(lp147
I134
atp148
s(I197
V9_56
p149
tp150
(g8
(lp151
I85
atp152
s(I196
V7_51
p153
tp154
(g27
(lp155
I145
atp156
s(I178
g95
tp157
((lp158
I178
aI107
aI7
aI74
aI153
a(lp159
I19
atp160
s(I196
V1_18
p161
tp162
(g27
(lp163
I111
atp164
s(I153
V5_39
p165
tp166
(g3
(lp167
I39
atp168
s(I197
V9_61
p169
tp170
(g8
(lp171
I88
atp172
s(I197
V9_59
p173
tp174
(g8
(lp175
I87
atp176
s(I190
V6_49
p177
tp178
(g32
(lp179
I149
atp180
s(I196
V1_15
p181
tp182
(g27
(lp183
I110
atp184
s(I169
V0_1
p185
tp186
(g18
(lp187
I117
atp188
s(I199
V8_53
p189
tp190
((lp191
I199
a(lp192
I80
atp193
s(I169
V0_2
p194
tp195
(g18
(lp196
I118
atp197
s(I196
g145
tp198
(g27
(lp199
I103
atp200
s(I190
V3_25
p201
tp202
(g32
(lp203
I125
atp204
s(I195
g118
tp205
(g142
(lp206
I139
atp207
s(I199
V8_54
p208
tp209
(g191
(lp210
I82
atp211
s(I169
V4_32
p212
tp213
(g18
(lp214
I122
atp215
s(I190
V6_47
p216
tp217
(g32
(lp218
I151
atp219
s(I153
V5_41
p220
tp221
(g3
(lp222
I41
atp223
s(I196
V1_10
p224
tp225
(g27
(lp226
I106
atp227
s(I195
g95
tp228
(g142
(lp229
I137
atp230
s(I196
V1_13
p231
tp232
(g27
(lp233
I109
atp234
s(I197
V9_60
p235
tp236
(g8
(lp237
I99
atp238
s(I172
g118
tp239
(g13
(lp240
I142
atp241
s(I190
V6_48
p242
tp243
(g32
(lp244
I152
atp245
s(I199
V8_52
p246
tp247
(g191
(lp248
I78
atp249
s(I196
V1_12
p250
tp251
(g27
(lp252
I108
atp253
s(I196
g201
tp254
(g27
(lp255
I94
atp256
s(I169
V4_33
p257
tp258
(g18
(lp259
I124
atp260
s(I190
V6_44
p261
tp262
(g32
(lp263
I148
atp264
s(I196
V1_17
p265
tp266
(g27
(lp267
I123
atp268
s(I196
V1_11
p269
tp270
(g27
(lp271
I107
atp272
s(I169
V4_35
p273
tp274
(g18
(lp275
I115
atp276
s(I169
V4_34
p277
tp278
(g18
(lp279
I133
atp280
s(I153
V5_40
p281
tp282
(g3
(lp283
I40
atp284
s(I190
g25
tp285
(g32
(lp286
I135
atp287
s(I196
V1_14
p288
tp289
(g27
(lp290
I121
atp291
s(I198
V7_50
p292
tp293
((lp294
I198
aI196
a(lp295
I144
atp296
s(I187
V5_36
p297
tp298
((lp299
I187
aI112
aI100
aI74
aI153
a(lp300
I36
atp301
s.