(dp0
(I199
V1_18
p1
tp2
((lp3
I199
aI197
aI173
aI110
aI98
aI57
a(lp4
I98
atp5
s(I57
V1_14
p6
tp7
((lp8
I57
aI6
aI15
aI58
a(lp9
I145
atp10
s(I108
V6_46
p11
tp12
((lp13
I108
aI109
aI106
aI175
a(lp14
I116
atp15
s(I194
V4_31
p16
tp17
((lp18
I194
aI190
aI83
aI2
aI107
aI84
a(lp19
I151
atp20
s(I194
V4_35
p21
tp22
(g18
(lp23
I150
atp24
s(I58
V8_54
p25
tp26
((lp27
I58
aI15
aI7
aI105
a(lp28
I133
atp29
s(I95
V5_38
p30
tp31
((lp32
I95
aI5
aI6
aI57
a(lp33
I119
atp34
s(I57
V9_59
p35
tp36
(g8
(lp37
I90
atp38
s(I105
V9_63
p39
tp40
((lp41
I105
aI7
aI3
aI94
a(lp42
I122
atp43
s(I92
V2_21
p44
tp45
((lp46
I92
aI5
aI93
a(lp47
I141
atp48
s(I194
V3_22
p49
tp50
(g18
(lp51
I131
atp52
s(I169
V0_0
p53
tp54
((lp55
I169
aI112
aI3
aI6
aI85
aI177
aI193
a(lp56
I85
atp57
s(I196
g49
tp58
((lp59
I196
aI185
aI112
aI110
aI173
aI197
aI199
a(lp60
I82
atp61
s(I194
V0_6
p62
tp63
(g18
(lp64
I126
atp65
s(I199
V1_10
p66
tp67
(g3
(lp68
I93
atp69
s(I57
V9_58
p70
tp71
(g8
(lp72
I89
atp73
s(I84
V3_25
p74
tp75
((lp76
I84
aI7
aI108
a(lp77
I142
atp78
s(I57
V9_56
p79
tp80
(g8
(lp81
I88
atp82
s(I172
V2_19
p83
tp84
((lp85
I172
aI90
aI2
aI5
aI91
a(lp86
I132
atp87
s(I193
V0_1
p88
tp89
((lp90
I193
aI177
aI85
aI6
aI0
aI109
aI190
aI194
a(lp91
I107
atp92
s(I57
V3_24
p93
tp94
(g8
(lp95
I155
atp96
s(I57
V9_61
p97
tp98
(g8
(lp99
I91
atp100
s(I197
V9_55
p101
tp102
((lp103
I197
aI173
aI110
aI98
aI57
a(lp104
I84
atp105
s(I195
g83
tp106
((lp107
I195
aI175
aI106
aI109
aI188
aI92
a(lp108
I139
atp109
s(I57
V5_39
p110
tp111
(g8
(lp112
I129
atp113
s(I95
V5_41
p114
tp115
(g32
(lp116
I117
atp117
s(I194
V6_42
p118
tp119
(g18
(lp120
I87
atp121
s(I105
V9_62
p122
tp123
(g41
(lp124
I121
atp125
s(I108
V6_45
p126
tp127
(g13
(lp128
I113
atp129
s(I193
V0_4
p130
tp131
(g90
(lp132
I109
atp133
s(I92
V2_20
p134
tp135
(g46
(lp136
I140
atp137
s(I108
g134
tp138
((lp139
I108
aI67
aI4
aI8
a(lp140
I157
atp141
s(I199
V1_11
p142
tp143
(g3
(lp144
I94
atp145
s(I91
g134
tp146
((lp147
I91
aI5
aI7
a(lp148
I137
atp149
s(I194
V4_30
p150
tp151
(g18
(lp152
I149
atp153
s(I196
V1_9
p154
tp155
(g59
(lp156
I78
atp157
s(I95
V5_37
p158
tp159
(g32
(lp160
I118
atp161
s(I108
V6_48
p162
tp163
(g13
(lp164
I115
atp165
s(I199
V1_15
p166
tp167
(g3
(lp168
I97
atp169
s(I178
g83
tp170
((lp171
I178
aI107
aI7
aI108
a(lp172
I154
atp173
s(I194
V0_7
p174
tp175
(g18
(lp176
I127
atp177
s(I169
V4_27
p178
tp179
(g55
(lp180
I106
atp181
s(I193
V4_28
p182
tp183
(g90
(lp184
I134
atp185
s(I108
g93
tp186
(g13
(lp187
I146
atp188
s(I84
V6_43
p189
tp190
(g76
(lp191
I101
atp192
s(I58
V9_57
p193
tp194
(g27
(lp195
I105
atp196
s(I108
V6_49
p197
tp198
(g13
(lp199
I112
atp200
s(I58
V9_60
p201
tp202
(g27
(lp203
I120
atp204
s(I84
V6_44
p205
tp206
(g76
(lp207
I102
atp208
s(I57
V5_40
p209
tp210
(g8
(lp211
I128
atp212
s(I108
g44
tp213
(g139
(lp214
I158
atp215
s(I199
V1_12
p216
tp217
(g3
(lp218
I95
atp219
s(I84
V3_23
p220
tp221
(g76
(lp222
I143
atp223
s(I91
g44
tp224
(g147
(lp225
I138
atp226
s(I193
V4_29
p227
tp228
(g90
(lp229
I135
atp230
s(I57
V1_16
p231
tp232
(g8
(lp233
I144
atp234
s(I194
V0_3
p235
tp236
(g18
(lp237
I124
atp238
s(I108
V6_47
p239
tp240
(g13
(lp241
I114
atp242
s(I199
V8_52
p243
tp244
(g3
(lp245
I80
atp246
s(I57
V1_17
p247
tp248
(g8
(lp249
I148
atp250
s(I57
V8_53
p251
tp252
(g8
(lp253
I103
atp254
s(I108
V3_26
p255
tp256
(g13
(lp257
I147
atp258
s(I194
V0_8
p259
tp260
(g18
(lp261
I123
atp262
s(I199
g220
tp263
(g3
(lp264
I100
atp265
s(I193
V0_2
p266
tp267
(g90
(lp268
I108
atp269
s(I199
g74
tp270
(g3
(lp271
I99
atp272
s(I57
g255
tp273
(g8
(lp274
I156
atp275
s(I199
V1_13
p276
tp277
(g3
(lp278
I96
atp279
s(I194
V0_5
p280
tp281
(g18
(lp282
I125
atp283
s(I198
V7_50
p284
tp285
((lp286
I198
aI196
aI185
aI112
aI110
aI173
aI197
aI199
a(lp287
I152
atp288
s(I187
V5_36
p289
tp290
((lp291
I187
aI112
aI95
a(lp292
I110
atp293
s.