(dp0
(I108
V3_26
p1
tp2
((lp3
I108
aI15
aI59
a(lp4
I156
atp5
s(I199
V1_18
p6
tp7
((lp8
I199
aI197
aI173
aI110
aI98
aI57
a(lp9
I129
atp10
s(I57
V1_14
p11
tp12
((lp13
I57
aI6
aI15
aI58
a(lp14
I158
atp15
s(I108
V6_46
p16
tp17
((lp18
I108
aI109
aI106
aI175
a(lp19
I122
atp20
s(I193
V0_4
p21
tp22
((lp23
I193
aI177
aI85
aI6
aI0
aI109
aI190
aI194
a(lp24
I132
atp25
s(I194
V0_6
p26
tp27
((lp28
I194
aI190
aI83
aI2
aI107
aI84
a(lp29
I146
atp30
s(I58
V8_54
p31
tp32
((lp33
I58
aI15
aI7
aI105
a(lp34
I141
atp35
s(I95
V5_38
p36
tp37
((lp38
I95
aI5
aI6
aI57
a(lp39
I92
atp40
s(I57
V9_59
p41
tp42
(g13
(lp43
I107
atp44
s(I199
V1_15
p45
tp46
(g8
(lp47
I128
atp48
s(I199
V7_51
p49
tp50
(g8
(lp51
I136
atp52
s(I194
V3_22
p53
tp54
(g28
(lp55
I142
atp56
s(I169
V0_0
p57
tp58
((lp59
I169
aI112
aI3
aI6
aI85
aI177
aI193
a(lp60
I96
atp61
s(I187
V5_36
p62
tp63
((lp64
I187
aI112
aI95
a(lp65
I83
atp66
s(I110
V2_21
p67
tp68
((lp69
I110
aI4
aI7
a(lp70
I134
atp71
s(I199
V1_10
p72
tp73
(g8
(lp74
I124
atp75
s(I194
V4_35
p76
tp77
(g28
(lp78
I149
atp79
s(I57
V8_53
p80
tp81
(g13
(lp82
I111
atp83
s(I84
V3_25
p84
tp85
((lp86
I84
aI7
aI108
a(lp87
I151
atp88
s(I57
V9_56
p89
tp90
(g13
(lp91
I105
atp92
s(I172
V2_19
p93
tp94
((lp95
I172
aI64
aI105
aI112
aI110
a(lp96
I110
atp97
s(I193
V0_1
p98
tp99
(g23
(lp100
I130
atp101
s(I57
V3_24
p102
tp103
(g13
(lp104
I153
atp105
s(I57
V9_61
p106
tp107
(g13
(lp108
I108
atp109
s(I197
V9_55
p110
tp111
((lp112
I197
aI173
aI110
aI98
aI57
a(lp113
I85
atp114
s(I195
g93
tp115
((lp116
I195
aI175
aI106
aI109
a(lp117
I102
atp118
s(I57
V5_39
p119
tp120
(g13
(lp121
I118
atp122
s(I95
V5_41
p123
tp124
(g38
(lp125
I90
atp126
s(I194
V6_42
p127
tp128
(g28
(lp129
I82
atp130
s(I105
V9_62
p131
tp132
((lp133
I105
aI7
aI3
aI94
a(lp134
I139
atp135
s(I109
V2_20
p136
tp137
((lp138
I109
aI0
aI103
aI176
a(lp139
I115
atp140
s(I108
V6_45
p141
tp142
(g18
(lp143
I113
atp144
s(I109
g67
tp145
(g138
(lp146
I116
atp147
s(I110
g136
tp148
(g69
(lp149
I133
atp150
s(I199
V1_11
p151
tp152
(g8
(lp153
I125
atp154
s(I108
g102
tp155
(g3
(lp156
I155
atp157
s(I108
V4_34
p158
tp159
(g18
(lp160
I162
atp161
s(I194
V4_30
p162
tp163
(g28
(lp164
I148
atp165
s(I199
V1_12
p166
tp167
(g8
(lp168
I126
atp169
s(I196
V1_9
p170
tp171
((lp172
I196
aI185
aI112
aI110
aI173
aI197
aI199
a(lp173
I89
atp174
s(I95
V5_37
p175
tp176
(g38
(lp177
I91
atp178
s(I108
V6_48
p179
tp180
(g18
(lp181
I121
atp182
s(I108
g136
tp183
(g18
(lp184
I99
atp185
s(I178
g93
tp186
((lp187
I178
aI107
aI7
aI108
a(lp188
I78
atp189
s(I194
V0_7
p190
tp191
(g28
(lp192
I147
atp193
s(I169
V4_27
p194
tp195
(g59
(lp196
I98
atp197
s(I193
V4_28
p198
tp199
(g23
(lp200
I137
atp201
s(I84
V6_43
p202
tp203
(g86
(lp204
I103
atp205
s(I105
V9_63
p206
tp207
(g133
(lp208
I140
atp209
s(I58
V9_57
p210
tp211
(g33
(lp212
I123
atp213
s(I108
V6_49
p214
tp215
(g18
(lp216
I112
atp217
s(I84
V4_33
p218
tp219
(g86
(lp220
I159
atp221
s(I58
V9_60
p222
tp223
(g33
(lp224
I135
atp225
s(I84
V6_44
p226
tp227
(g86
(lp228
I104
atp229
s(I57
V5_40
p230
tp231
(g13
(lp232
I117
atp233
s(I108
g67
tp234
(g18
(lp235
I100
atp236
s(I84
V3_23
p237
tp238
(g86
(lp239
I152
atp240
s(I193
V4_29
p241
tp242
(g23
(lp243
I138
atp244
s(I57
V1_16
p245
tp246
(g13
(lp247
I157
atp248
s(I194
V0_3
p249
tp250
(g28
(lp251
I144
atp252
s(I108
V6_47
p253
tp254
(g18
(lp255
I114
atp256
s(I199
V8_52
p257
tp258
(g8
(lp259
I86
atp260
s(I84
V4_32
p261
tp262
(g86
(lp263
I161
atp264
s(I57
V1_17
p265
tp266
(g13
(lp267
I160
atp268
s(I57
V9_58
p269
tp270
(g13
(lp271
I106
atp272
s(I194
V4_31
p273
tp274
(g28
(lp275
I150
atp276
s(I194
V0_8
p277
tp278
(g28
(lp279
I143
atp280
s(I199
g237
tp281
(g8
(lp282
I120
atp283
s(I193
V0_2
p284
tp285
(g23
(lp286
I131
atp287
s(I199
g84
tp288
(g8
(lp289
I119
atp290
s(I57
g1
tp291
(g13
(lp292
I154
atp293
s(I199
V1_13
p294
tp295
(g8
(lp296
I127
atp297
s(I194
V0_5
p298
tp299
(g28
(lp300
I145
atp301
s(I198
V7_50
p302
tp303
((lp304
I198
aI196
aI185
aI112
aI110
aI173
aI197
aI199
a(lp305
I95
atp306
s(I196
g53
tp307
(g172
(lp308
I88
atp309
s.