(dp0
I0
(lp1
sI1
(lp2
sI2
(lp3
sI3
(lp4
sI4
(lp5
sI5
(lp6
sI6
(lp7
sI7
(lp8
sI8
(lp9
sI9
(lp10
sI10
(lp11
sI11
(lp12
sI12
(lp13
sI13
(lp14
sI14
(lp15
sI15
(lp16
sI16
(lp17
sI17
(lp18
sI18
(lp19
sI19
(lp20
sI20
(lp21
sI21
(lp22
sI22
(lp23
sI23
(lp24
sI24
(lp25
sI25
(lp26
sI26
(lp27
sI27
(lp28
sI28
(lp29
sI29
(lp30
sI30
(lp31
sI31
(lp32
sI32
(lp33
sI33
(lp34
sI34
(lp35
sI35
(lp36
sI36
(lp37
sI37
(lp38
sI38
(lp39
sI39
(lp40
sI40
(lp41
sI41
(lp42
sI42
(lp43
sI43
(lp44
sI44
(lp45
sI45
(lp46
sI46
(lp47
sI47
(lp48
sI48
(lp49
sI49
(lp50
sI50
(lp51
sI51
(lp52
sI52
(lp53
sI53
(lp54
sI54
(lp55
sI55
(lp56
sI56
(lp57
sI57
(lp58
V1#1_18
p59
aV1#1_13
p60
aV1#1_12
p61
aV1#1_11
p62
aV1#1_10
p63
aV1#1_15
p64
aV5#5_38
p65
aV5#5_41
p66
aV5#5_37
p67
aV7#7_51
p68
aV9#9_55
p69
aV8#8_52
p70
asI58
(lp71
V5#5_39
p72
aV5#5_40
p73
aV9#9_59
p74
aV9#9_58
p75
aV9#9_56
p76
aV9#9_61
p77
aV8#8_53
p78
asI59
(lp79
sI60
(lp80
sI61
(lp81
sI62
(lp82
sI63
(lp83
sI64
(lp84
sI65
(lp85
sI66
(lp86
sI67
(lp87
sI68
(lp88
sI69
(lp89
sI70
(lp90
sI71
(lp91
sI72
(lp92
sI73
(lp93
sI74
(lp94
sI75
(lp95
sI76
(lp96
sI77
(lp97
sI78
(lp98
sI79
(lp99
sI80
(lp100
sI81
(lp101
sI82
(lp102
sI83
(lp103
sI84
(lp104
V0#0_8
p105
aV0#0_6
p106
aV0#0_7
p107
aV0#0_5
p108
aV0#0_3
p109
aV3#3_22
p110
aV4#4_30
p111
aV4#4_31
p112
aV4#4_35
p113
aV6#6_42
p114
asI85
(lp115
sI86
(lp116
sI87
(lp117
sI88
(lp118
sI89
(lp119
sI90
(lp120
sI91
(lp121
sI92
(lp122
sI93
(lp123
sI94
(lp124
V9#9_62
p125
aV9#9_63
p126
asI95
(lp127
V5#5_36
p128
asI96
(lp129
sI97
(lp130
sI98
(lp131
sI99
(lp132
sI100
(lp133
sI101
(lp134
sI102
(lp135
sI103
(lp136
sI104
(lp137
sI105
(lp138
V2#2_21
p139
aV2#2_20
p140
aV9#9_57
p141
aV9#9_60
p142
aV8#8_54
p143
asI106
(lp144
V2#2_21
p145
aV2#2_20
p146
asI107
(lp147
sI108
(lp148
V3#3_25
p149
aV3#3_23
p150
aV2#2_19
p151
aV4#4_32
p152
aV4#4_33
p153
aV6#6_44
p154
aV6#6_43
p155
asI109
(lp156
V3#3_25
p157
aV3#3_23
p158
aV2#2_19
p159
asI110
(lp160
V2#2_19
p161
asI111
(lp162
sI112
(lp163
sI113
(lp164
sI114
(lp165
sI115
(lp166
sI116
(lp167
sI117
(lp168
sI118
(lp169
sI119
(lp170
sI120
(lp171
sI121
(lp172
sI122
(lp173
sI123
(lp174
sI124
(lp175
sI125
(lp176
sI126
(lp177
sI127
(lp178
sI128
(lp179
sI129
(lp180
sI130
(lp181
sI131
(lp182
sI132
(lp183
sI133
(lp184
sI134
(lp185
sI135
(lp186
sI136
(lp187
sI137
(lp188
sI138
(lp189
sI139
(lp190
sI140
(lp191
sI141
(lp192
sI142
(lp193
sI143
(lp194
sI144
(lp195
sI145
(lp196
sI146
(lp197
sI147
(lp198
sI148
(lp199
sI149
(lp200
sI150
(lp201
sI151
(lp202
sI152
(lp203
sI153
(lp204
V1#1_18
p205
aV1#1_13
p206
aV1#1_12
p207
aV1#1_11
p208
aV1#1_10
p209
aV1#1_17
p210
aV1#1_16
p211
aV1#1_15
p212
aV1#1_14
p213
aV1#1_9
p214
aV0#0_8
p215
aV0#0_6
p216
aV0#0_7
p217
aV0#0_4
p218
aV0#0_5
p219
aV0#0_2
p220
aV0#0_3
p221
aV0#0_0
p222
aV0#0_1
p223
aV3#3_24
p224
aV3#3_25
p225
aV3#3_26
p226
aV3#3_22
p227
aV3#3_23
p228
aV2#2_19
p229
aV2#2_21
p230
aV2#2_20
p231
aV5#5_39
p232
aV5#5_38
p233
aV5#5_40
p234
aV5#5_41
p235
aV5#5_37
p236
aV5#5_36
p237
aV4#4_27
p238
aV4#4_29
p239
aV4#4_28
p240
aV4#4_32
p241
aV4#4_33
p242
aV4#4_30
p243
aV4#4_31
p244
aV4#4_34
p245
aV4#4_35
p246
aV7#7_51
p247
aV7#7_50
p248
aV6#6_49
p249
aV6#6_48
p250
aV6#6_45
p251
aV6#6_44
p252
aV6#6_47
p253
aV6#6_46
p254
aV6#6_43
p255
aV6#6_42
p256
aV9#9_59
p257
aV9#9_58
p258
aV9#9_57
p259
aV9#9_56
p260
aV9#9_55
p261
aV9#9_61
p262
aV9#9_62
p263
aV9#9_63
p264
aV9#9_60
p265
aV8#8_54
p266
aV8#8_52
p267
aV8#8_53
p268
asI154
(lp269
sI155
(lp270
sI156
(lp271
sI157
(lp272
sI158
(lp273
sI159
(lp274
sI160
(lp275
sI161
(lp276
sI162
(lp277
sI163
(lp278
sI164
(lp279
sI165
(lp280
sI166
(lp281
sI167
(lp282
sI168
(lp283
sI169
(lp284
V4#None
p285
aV0#None
p286
asI170
(lp287
sI171
(lp288
sI172
(lp289
V2#None
p290
asI173
(lp291
sI174
(lp292
sI175
(lp293
V3#3_24
p294
aV3#3_26
p295
aV2#2_21
p296
aV2#2_20
p297
aV4#4_34
p298
aV6#6_49
p299
aV6#6_48
p300
aV6#6_45
p301
aV6#6_47
p302
aV6#6_46
p303
asI176
(lp304
V3#3_24
p305
aV3#3_26
p306
asI177
(lp307
sI178
(lp308
V2#None
p309
asI179
(lp310
sI180
(lp311
sI181
(lp312
sI182
(lp313
sI183
(lp314
sI184
(lp315
sI185
(lp316
sI186
(lp317
sI187
(lp318
V5#None
p319
asI188
(lp320
sI189
(lp321
sI190
(lp322
sI191
(lp323
sI192
(lp324
sI193
(lp325
V0#0_0
p326
aV4#4_27
p327
asI194
(lp328
V3#None
p329
aV6#None
p330
aV0#0_4
p331
aV0#0_2
p332
aV0#0_1
p333
aV4#4_29
p334
aV4#4_28
p335
asI195
(lp336
V2#None
p337
asI196
(lp338
V1#None
p339
aV3#None
p340
asI197
(lp341
V9#None
p342
asI198
(lp343
V7#None
p344
asI199
(lp345
V8#None
p346
aV1#1_9
p347
aV3#3_22
p348
aV7#7_50
p349
as.