(dp0
(I199
V1_18
p1
tp2
((lp3
I199
aI197
aI173
aI110
aI98
aI57
a(lp4
I124
atp5
s(I57
V1_14
p6
tp7
((lp8
I57
aI6
aI15
aI58
a(lp9
I150
atp10
s(I108
V6_46
p11
tp12
((lp13
I108
aI109
aI106
aI175
a(lp14
I146
atp15
s(I193
V0_4
p16
tp17
((lp18
I193
aI177
aI85
aI6
aI0
aI109
aI190
aI194
a(lp19
I115
atp20
s(I194
V0_6
p21
tp22
((lp23
I194
aI190
aI83
aI2
aI107
aI84
a(lp24
I136
atp25
s(I108
V6_49
p26
tp27
(g13
(lp28
I140
atp29
s(I58
V8_54
p30
tp31
((lp32
I58
aI15
aI7
aI105
a(lp33
I157
atp34
s(I95
V5_38
p35
tp36
((lp37
I95
aI5
aI6
aI57
a(lp38
I91
atp39
s(I57
V9_59
p40
tp41
(g8
(lp42
I106
atp43
s(I199
V1_15
p44
tp45
(g3
(lp46
I123
atp47
s(I199
V7_51
p48
tp49
(g3
(lp50
I125
atp51
s(I194
V3_22
p52
tp53
(g23
(lp54
I103
atp55
s(I169
V0_0
p56
tp57
((lp58
I169
aI112
aI3
aI6
aI85
aI177
aI193
a(lp59
I85
atp60
s(I187
V5_36
p61
tp62
((lp63
I187
aI112
aI95
a(lp64
I83
atp65
s(I110
V2_21
p66
tp67
((lp68
I110
aI112
aI106
a(lp69
I102
atp70
s(I194
V4_31
p71
tp72
(g23
(lp73
I156
atp74
s(I199
V1_10
p75
tp76
(g3
(lp77
I119
atp78
s(I194
V4_35
p79
tp80
(g23
(lp81
I155
atp82
s(I57
V8_53
p83
tp84
(g8
(lp85
I132
atp86
s(I84
V3_25
p87
tp88
((lp89
I84
aI7
aI108
a(lp90
I116
atp91
s(I57
V9_56
p92
tp93
(g8
(lp94
I104
atp95
s(I172
V2_19
p96
tp97
((lp98
I172
aI64
aI105
aI112
aI110
a(lp99
I93
atp100
s(I193
V0_1
p101
tp102
(g18
(lp103
I113
atp104
s(I57
V9_61
p105
tp106
(g8
(lp107
I107
atp108
s(I197
V9_55
p109
tp110
((lp111
I197
aI173
aI110
aI98
aI57
a(lp112
I88
atp113
s(I195
g96
tp114
((lp115
I195
aI175
aI106
aI109
a(lp116
I87
atp117
s(I57
V5_39
p118
tp119
(g8
(lp120
I111
atp121
s(I95
V5_41
p122
tp123
(g37
(lp124
I89
atp125
s(I194
V6_42
p126
tp127
(g23
(lp128
I126
atp129
s(I105
V9_62
p130
tp131
((lp132
I105
aI7
aI3
aI94
a(lp133
I143
atp134
s(I109
V2_20
p135
tp136
((lp137
I109
aI3
aI7
aI105
a(lp138
I99
atp139
s(I108
V6_45
p140
tp141
(g13
(lp142
I141
atp143
s(I109
g66
tp144
(g137
(lp145
I100
atp146
s(I110
g135
tp147
(g68
(lp148
I101
atp149
s(I199
V1_11
p150
tp151
(g3
(lp152
I120
atp153
s(I108
V3_24
p154
tp155
(g13
(lp156
I127
atp157
s(I194
V4_30
p158
tp159
(g23
(lp160
I152
atp161
s(I199
V1_12
p162
tp163
(g3
(lp164
I121
atp165
s(I196
V1_9
p166
tp167
((lp168
I196
aI185
aI112
aI110
aI173
aI197
aI199
a(lp169
I95
atp170
s(I95
V5_37
p171
tp172
(g37
(lp173
I90
atp174
s(I108
V6_48
p175
tp176
(g13
(lp177
I145
atp178
s(I108
g135
tp179
((lp180
I108
aI109
aI106
a(lp181
I101
atp182
s(I178
g96
tp183
((lp184
I178
aI107
aI7
aI108
a(lp185
I82
atp186
s(I194
V0_7
p187
tp188
(g23
(lp189
I137
atp190
s(I169
V4_27
p191
tp192
(g58
(lp193
I98
atp194
s(I193
V4_28
p195
tp196
(g18
(lp197
I147
atp198
s(I84
V6_43
p199
tp200
(g89
(lp201
I138
atp202
s(I109
g154
tp203
((lp204
I109
aI0
aI103
aI176
a(lp205
I153
atp206
s(I105
V9_63
p207
tp208
(g132
(lp209
I144
atp210
s(I58
V9_57
p211
tp212
(g32
(lp213
I118
atp214
s(I194
V0_8
p215
tp216
(g23
(lp217
I133
atp218
s(I58
V9_60
p219
tp220
(g32
(lp221
I129
atp222
s(I84
V6_44
p223
tp224
(g89
(lp225
I139
atp226
s(I57
V5_40
p227
tp228
(g8
(lp229
I110
atp230
s(I108
g66
tp231
(g180
(lp232
I102
atp233
s(I84
V3_23
p234
tp235
(g89
(lp236
I117
atp237
s(I193
V4_29
p238
tp239
(g18
(lp240
I148
atp241
s(I57
V1_16
p242
tp243
(g8
(lp244
I149
atp245
s(I194
V0_3
p246
tp247
(g23
(lp248
I134
atp249
s(I194
V0_5
p250
tp251
(g23
(lp252
I135
atp253
s(I199
V8_52
p254
tp255
(g3
(lp256
I109
atp257
s(I57
V1_17
p258
tp259
(g8
(lp260
I151
atp261
s(I57
V9_58
p262
tp263
(g8
(lp264
I105
atp265
s(I108
V3_26
p266
tp267
(g13
(lp268
I128
atp269
s(I108
V6_47
p270
tp271
(g13
(lp272
I142
atp273
s(I199
g234
tp274
((lp275
I199
aI197
aI173
aI110
aI0
aI109
a(lp276
I131
atp277
s(I193
V0_2
p278
tp279
(g18
(lp280
I114
atp281
s(I199
g87
tp282
(g275
(lp283
I130
atp284
s(I109
g266
tp285
(g204
(lp286
I154
atp287
s(I199
V1_13
p288
tp289
(g3
(lp290
I122
atp291
s(I198
V7_50
p292
tp293
((lp294
I198
aI196
aI185
aI112
aI110
aI173
aI197
aI199
a(lp295
I92
atp296
s(I196
g52
tp297
(g168
(lp298
I96
atp299
s.