(dp0
I0
(lp1
sI1
(lp2
sI2
(lp3
sI3
(lp4
sI4
(lp5
sI5
(lp6
sI6
(lp7
sI7
(lp8
V2#2_21
p9
aV2#2_20
p10
asI8
(lp11
V2#2_21
p12
aV2#2_20
p13
asI9
(lp14
sI10
(lp15
sI11
(lp16
sI12
(lp17
sI13
(lp18
sI14
(lp19
sI15
(lp20
sI16
(lp21
sI17
(lp22
sI18
(lp23
sI19
(lp24
sI20
(lp25
sI21
(lp26
sI22
(lp27
sI23
(lp28
sI24
(lp29
sI25
(lp30
sI26
(lp31
sI27
(lp32
sI28
(lp33
sI29
(lp34
sI30
(lp35
sI31
(lp36
sI32
(lp37
sI33
(lp38
sI34
(lp39
sI35
(lp40
sI36
(lp41
sI37
(lp42
sI38
(lp43
sI39
(lp44
sI40
(lp45
sI41
(lp46
sI42
(lp47
sI43
(lp48
sI44
(lp49
sI45
(lp50
sI46
(lp51
sI47
(lp52
sI48
(lp53
sI49
(lp54
sI50
(lp55
sI51
(lp56
sI52
(lp57
sI53
(lp58
sI54
(lp59
sI55
(lp60
sI56
(lp61
sI57
(lp62
V1#1_18
p63
aV1#1_13
p64
aV1#1_12
p65
aV1#1_11
p66
aV1#1_10
p67
aV1#1_15
p68
aV3#3_25
p69
aV3#3_23
p70
aV5#5_38
p71
aV5#5_41
p72
aV5#5_37
p73
aV7#7_51
p74
aV9#9_55
p75
aV8#8_52
p76
asI58
(lp77
V3#3_24
p78
aV3#3_26
p79
aV5#5_39
p80
aV5#5_40
p81
aV9#9_59
p82
aV9#9_58
p83
aV9#9_56
p84
aV9#9_61
p85
aV8#8_53
p86
asI59
(lp87
sI60
(lp88
sI61
(lp89
sI62
(lp90
sI63
(lp91
sI64
(lp92
sI65
(lp93
sI66
(lp94
sI67
(lp95
sI68
(lp96
sI69
(lp97
sI70
(lp98
sI71
(lp99
sI72
(lp100
sI73
(lp101
sI74
(lp102
sI75
(lp103
sI76
(lp104
sI77
(lp105
sI78
(lp106
sI79
(lp107
sI80
(lp108
sI81
(lp109
sI82
(lp110
sI83
(lp111
sI84
(lp112
V0#0_8
p113
aV0#0_6
p114
aV0#0_7
p115
aV0#0_5
p116
aV0#0_3
p117
aV3#3_22
p118
aV4#4_30
p119
aV4#4_31
p120
aV4#4_35
p121
aV6#6_42
p122
asI85
(lp123
sI86
(lp124
sI87
(lp125
sI88
(lp126
sI89
(lp127
sI90
(lp128
sI91
(lp129
V2#2_19
p130
asI92
(lp131
V2#2_19
p132
asI93
(lp133
V2#2_21
p134
aV2#2_20
p135
asI94
(lp136
V9#9_62
p137
aV9#9_63
p138
asI95
(lp139
V5#5_36
p140
asI96
(lp141
sI97
(lp142
sI98
(lp143
sI99
(lp144
sI100
(lp145
sI101
(lp146
sI102
(lp147
sI103
(lp148
sI104
(lp149
sI105
(lp150
V9#9_57
p151
aV9#9_60
p152
aV8#8_54
p153
asI106
(lp154
sI107
(lp155
sI108
(lp156
V3#3_25
p157
aV3#3_23
p158
aV2#2_19
p159
aV4#4_32
p160
aV4#4_33
p161
aV6#6_44
p162
aV6#6_43
p163
asI109
(lp164
sI110
(lp165
sI111
(lp166
sI112
(lp167
sI113
(lp168
sI114
(lp169
sI115
(lp170
sI116
(lp171
sI117
(lp172
sI118
(lp173
sI119
(lp174
sI120
(lp175
sI121
(lp176
sI122
(lp177
sI123
(lp178
sI124
(lp179
sI125
(lp180
sI126
(lp181
sI127
(lp182
sI128
(lp183
sI129
(lp184
sI130
(lp185
sI131
(lp186
sI132
(lp187
sI133
(lp188
sI134
(lp189
sI135
(lp190
sI136
(lp191
sI137
(lp192
sI138
(lp193
sI139
(lp194
sI140
(lp195
sI141
(lp196
sI142
(lp197
sI143
(lp198
sI144
(lp199
sI145
(lp200
sI146
(lp201
sI147
(lp202
sI148
(lp203
sI149
(lp204
sI150
(lp205
sI151
(lp206
sI152
(lp207
sI153
(lp208
V1#1_18
p209
aV1#1_13
p210
aV1#1_12
p211
aV1#1_11
p212
aV1#1_10
p213
aV1#1_17
p214
aV1#1_16
p215
aV1#1_15
p216
aV1#1_14
p217
aV1#1_9
p218
aV0#0_8
p219
aV0#0_6
p220
aV0#0_7
p221
aV0#0_4
p222
aV0#0_5
p223
aV0#0_2
p224
aV0#0_3
p225
aV0#0_0
p226
aV0#0_1
p227
aV3#3_24
p228
aV3#3_25
p229
aV3#3_26
p230
aV3#3_22
p231
aV3#3_23
p232
aV2#2_19
p233
aV2#2_21
p234
aV2#2_20
p235
aV5#5_39
p236
aV5#5_38
p237
aV5#5_40
p238
aV5#5_41
p239
aV5#5_37
p240
aV5#5_36
p241
aV4#4_27
p242
aV4#4_29
p243
aV4#4_28
p244
aV4#4_32
p245
aV4#4_33
p246
aV4#4_30
p247
aV4#4_31
p248
aV4#4_34
p249
aV4#4_35
p250
aV7#7_51
p251
aV7#7_50
p252
aV6#6_49
p253
aV6#6_48
p254
aV6#6_45
p255
aV6#6_44
p256
aV6#6_47
p257
aV6#6_46
p258
aV6#6_43
p259
aV6#6_42
p260
aV9#9_59
p261
aV9#9_58
p262
aV9#9_57
p263
aV9#9_56
p264
aV9#9_55
p265
aV9#9_61
p266
aV9#9_62
p267
aV9#9_63
p268
aV9#9_60
p269
aV8#8_54
p270
aV8#8_52
p271
aV8#8_53
p272
asI154
(lp273
sI155
(lp274
sI156
(lp275
sI157
(lp276
sI158
(lp277
sI159
(lp278
sI160
(lp279
sI161
(lp280
sI162
(lp281
sI163
(lp282
sI164
(lp283
sI165
(lp284
sI166
(lp285
sI167
(lp286
sI168
(lp287
sI169
(lp288
V4#None
p289
aV0#None
p290
asI170
(lp291
sI171
(lp292
sI172
(lp293
V2#None
p294
asI173
(lp295
sI174
(lp296
sI175
(lp297
V3#3_24
p298
aV3#3_26
p299
aV4#4_34
p300
aV6#6_49
p301
aV6#6_48
p302
aV6#6_45
p303
aV6#6_47
p304
aV6#6_46
p305
asI176
(lp306
sI177
(lp307
sI178
(lp308
V2#None
p309
asI179
(lp310
sI180
(lp311
sI181
(lp312
sI182
(lp313
sI183
(lp314
sI184
(lp315
sI185
(lp316
sI186
(lp317
sI187
(lp318
V5#None
p319
asI188
(lp320
sI189
(lp321
sI190
(lp322
sI191
(lp323
sI192
(lp324
sI193
(lp325
V0#0_0
p326
aV4#4_27
p327
asI194
(lp328
V6#None
p329
aV3#None
p330
aV0#0_4
p331
aV0#0_2
p332
aV0#0_1
p333
aV4#4_29
p334
aV4#4_28
p335
asI195
(lp336
V2#None
p337
asI196
(lp338
V1#None
p339
aV3#None
p340
asI197
(lp341
V9#None
p342
asI198
(lp343
V7#None
p344
asI199
(lp345
V8#None
p346
aV1#1_9
p347
aV3#3_22
p348
aV7#7_50
p349
as.