(dp0
I0
(lp1
sI1
(lp2
sI2
(lp3
sI3
(lp4
sI4
(lp5
sI5
(lp6
sI6
(lp7
sI7
(lp8
V2#2_21
p9
aV2#2_20
p10
asI8
(lp11
V2#2_21
p12
aV2#2_20
p13
asI9
(lp14
sI10
(lp15
sI11
(lp16
sI12
(lp17
sI13
(lp18
sI14
(lp19
sI15
(lp20
sI16
(lp21
sI17
(lp22
sI18
(lp23
sI19
(lp24
sI20
(lp25
sI21
(lp26
sI22
(lp27
sI23
(lp28
sI24
(lp29
sI25
(lp30
sI26
(lp31
sI27
(lp32
sI28
(lp33
sI29
(lp34
sI30
(lp35
sI31
(lp36
sI32
(lp37
sI33
(lp38
sI34
(lp39
sI35
(lp40
sI36
(lp41
sI37
(lp42
sI38
(lp43
sI39
(lp44
sI40
(lp45
sI41
(lp46
sI42
(lp47
sI43
(lp48
sI44
(lp49
sI45
(lp50
sI46
(lp51
sI47
(lp52
sI48
(lp53
sI49
(lp54
sI50
(lp55
sI51
(lp56
sI52
(lp57
sI53
(lp58
sI54
(lp59
sI55
(lp60
sI56
(lp61
sI57
(lp62
V1#1_18
p63
aV1#1_13
p64
aV1#1_12
p65
aV1#1_11
p66
aV1#1_10
p67
aV1#1_15
p68
aV3#3_25
p69
aV3#3_23
p70
aV5#5_38
p71
aV5#5_41
p72
aV5#5_37
p73
aV7#7_51
p74
aV9#9_55
p75
aV8#8_52
p76
asI58
(lp77
V1#1_17
p78
aV1#1_16
p79
aV1#1_14
p80
aV3#3_24
p81
aV3#3_26
p82
aV5#5_39
p83
aV5#5_40
p84
aV9#9_59
p85
aV9#9_58
p86
aV9#9_56
p87
aV9#9_61
p88
aV8#8_53
p89
asI59
(lp90
sI60
(lp91
sI61
(lp92
sI62
(lp93
sI63
(lp94
sI64
(lp95
sI65
(lp96
sI66
(lp97
sI67
(lp98
sI68
(lp99
sI69
(lp100
sI70
(lp101
sI71
(lp102
sI72
(lp103
sI73
(lp104
sI74
(lp105
sI75
(lp106
sI76
(lp107
sI77
(lp108
sI78
(lp109
V2#2_21
p110
aV2#2_20
p111
asI79
(lp112
sI80
(lp113
sI81
(lp114
sI82
(lp115
sI83
(lp116
sI84
(lp117
V0#0_8
p118
aV0#0_6
p119
aV0#0_7
p120
aV0#0_5
p121
aV0#0_3
p122
aV3#3_22
p123
aV4#4_30
p124
aV4#4_31
p125
aV4#4_35
p126
aV6#6_42
p127
asI85
(lp128
sI86
(lp129
sI87
(lp130
sI88
(lp131
sI89
(lp132
sI90
(lp133
sI91
(lp134
V2#2_19
p135
asI92
(lp136
sI93
(lp137
sI94
(lp138
V9#9_62
p139
aV9#9_63
p140
asI95
(lp141
V5#5_36
p142
asI96
(lp143
sI97
(lp144
sI98
(lp145
sI99
(lp146
sI100
(lp147
sI101
(lp148
sI102
(lp149
sI103
(lp150
sI104
(lp151
sI105
(lp152
V9#9_57
p153
aV9#9_60
p154
aV8#8_54
p155
asI106
(lp156
sI107
(lp157
sI108
(lp158
V3#3_25
p159
aV3#3_23
p160
aV2#2_19
p161
aV4#4_32
p162
aV4#4_33
p163
aV6#6_44
p164
aV6#6_43
p165
asI109
(lp166
sI110
(lp167
sI111
(lp168
sI112
(lp169
sI113
(lp170
sI114
(lp171
sI115
(lp172
sI116
(lp173
sI117
(lp174
sI118
(lp175
sI119
(lp176
sI120
(lp177
sI121
(lp178
sI122
(lp179
sI123
(lp180
sI124
(lp181
sI125
(lp182
sI126
(lp183
sI127
(lp184
sI128
(lp185
sI129
(lp186
sI130
(lp187
sI131
(lp188
sI132
(lp189
sI133
(lp190
sI134
(lp191
sI135
(lp192
sI136
(lp193
sI137
(lp194
sI138
(lp195
sI139
(lp196
sI140
(lp197
sI141
(lp198
sI142
(lp199
sI143
(lp200
sI144
(lp201
sI145
(lp202
sI146
(lp203
sI147
(lp204
sI148
(lp205
sI149
(lp206
sI150
(lp207
sI151
(lp208
sI152
(lp209
sI153
(lp210
V1#1_18
p211
aV1#1_13
p212
aV1#1_12
p213
aV1#1_11
p214
aV1#1_10
p215
aV1#1_17
p216
aV1#1_16
p217
aV1#1_15
p218
aV1#1_14
p219
aV1#1_9
p220
aV0#0_8
p221
aV0#0_6
p222
aV0#0_7
p223
aV0#0_4
p224
aV0#0_5
p225
aV0#0_2
p226
aV0#0_3
p227
aV0#0_0
p228
aV0#0_1
p229
aV3#3_24
p230
aV3#3_25
p231
aV3#3_26
p232
aV3#3_22
p233
aV3#3_23
p234
aV2#2_19
p235
aV2#2_21
p236
aV2#2_20
p237
aV5#5_39
p238
aV5#5_38
p239
aV5#5_40
p240
aV5#5_41
p241
aV5#5_37
p242
aV5#5_36
p243
aV4#4_27
p244
aV4#4_29
p245
aV4#4_28
p246
aV4#4_32
p247
aV4#4_33
p248
aV4#4_30
p249
aV4#4_31
p250
aV4#4_34
p251
aV4#4_35
p252
aV7#7_51
p253
aV7#7_50
p254
aV6#6_49
p255
aV6#6_48
p256
aV6#6_45
p257
aV6#6_44
p258
aV6#6_47
p259
aV6#6_46
p260
aV6#6_43
p261
aV6#6_42
p262
aV9#9_59
p263
aV9#9_58
p264
aV9#9_57
p265
aV9#9_56
p266
aV9#9_55
p267
aV9#9_61
p268
aV9#9_62
p269
aV9#9_63
p270
aV9#9_60
p271
aV8#8_54
p272
aV8#8_52
p273
aV8#8_53
p274
asI154
(lp275
sI155
(lp276
sI156
(lp277
sI157
(lp278
sI158
(lp279
sI159
(lp280
sI160
(lp281
sI161
(lp282
sI162
(lp283
sI163
(lp284
sI164
(lp285
sI165
(lp286
sI166
(lp287
sI167
(lp288
sI168
(lp289
sI169
(lp290
V4#None
p291
aV0#None
p292
asI170
(lp293
sI171
(lp294
sI172
(lp295
V2#None
p296
asI173
(lp297
sI174
(lp298
sI175
(lp299
V3#3_24
p300
aV3#3_26
p301
aV4#4_34
p302
aV6#6_49
p303
aV6#6_48
p304
aV6#6_45
p305
aV6#6_47
p306
aV6#6_46
p307
asI176
(lp308
V2#2_19
p309
asI177
(lp310
sI178
(lp311
V2#None
p312
asI179
(lp313
sI180
(lp314
sI181
(lp315
sI182
(lp316
sI183
(lp317
sI184
(lp318
sI185
(lp319
sI186
(lp320
sI187
(lp321
V5#None
p322
asI188
(lp323
sI189
(lp324
sI190
(lp325
sI191
(lp326
sI192
(lp327
sI193
(lp328
V0#0_0
p329
aV4#4_27
p330
asI194
(lp331
V3#None
p332
aV6#None
p333
aV0#0_4
p334
aV0#0_2
p335
aV0#0_1
p336
aV4#4_29
p337
aV4#4_28
p338
asI195
(lp339
V2#None
p340
asI196
(lp341
V1#None
p342
aV3#None
p343
asI197
(lp344
V9#None
p345
asI198
(lp346
V7#None
p347
asI199
(lp348
V8#None
p349
aV1#1_9
p350
aV3#3_22
p351
aV7#7_50
p352
as.