(dp0
I0
(lp1
sI1
(lp2
sI2
(lp3
sI3
(lp4
sI4
(lp5
sI5
(lp6
sI6
(lp7
sI7
(lp8
V2#2_21
p9
aV2#2_20
p10
asI8
(lp11
sI9
(lp12
sI10
(lp13
sI11
(lp14
sI12
(lp15
sI13
(lp16
sI14
(lp17
sI15
(lp18
sI16
(lp19
sI17
(lp20
sI18
(lp21
sI19
(lp22
sI20
(lp23
sI21
(lp24
sI22
(lp25
sI23
(lp26
sI24
(lp27
sI25
(lp28
sI26
(lp29
sI27
(lp30
sI28
(lp31
sI29
(lp32
sI30
(lp33
sI31
(lp34
sI32
(lp35
sI33
(lp36
sI34
(lp37
sI35
(lp38
sI36
(lp39
sI37
(lp40
sI38
(lp41
sI39
(lp42
sI40
(lp43
sI41
(lp44
sI42
(lp45
sI43
(lp46
sI44
(lp47
sI45
(lp48
sI46
(lp49
sI47
(lp50
sI48
(lp51
sI49
(lp52
sI50
(lp53
sI51
(lp54
sI52
(lp55
sI53
(lp56
sI54
(lp57
sI55
(lp58
sI56
(lp59
sI57
(lp60
V1#1_18
p61
aV1#1_13
p62
aV1#1_12
p63
aV1#1_11
p64
aV1#1_10
p65
aV1#1_15
p66
aV5#5_38
p67
aV5#5_41
p68
aV5#5_37
p69
aV7#7_51
p70
aV9#9_55
p71
aV8#8_52
p72
asI58
(lp73
V1#1_17
p74
aV1#1_16
p75
aV1#1_14
p76
aV5#5_39
p77
aV5#5_40
p78
aV9#9_59
p79
aV9#9_58
p80
aV9#9_56
p81
aV9#9_61
p82
aV8#8_53
p83
asI59
(lp84
sI60
(lp85
sI61
(lp86
sI62
(lp87
sI63
(lp88
sI64
(lp89
sI65
(lp90
sI66
(lp91
sI67
(lp92
sI68
(lp93
sI69
(lp94
sI70
(lp95
sI71
(lp96
sI72
(lp97
sI73
(lp98
sI74
(lp99
sI75
(lp100
sI76
(lp101
sI77
(lp102
sI78
(lp103
sI79
(lp104
sI80
(lp105
sI81
(lp106
sI82
(lp107
sI83
(lp108
sI84
(lp109
V0#0_8
p110
aV0#0_6
p111
aV0#0_7
p112
aV0#0_5
p113
aV0#0_3
p114
aV3#3_22
p115
aV4#4_30
p116
aV4#4_31
p117
aV4#4_35
p118
aV6#6_42
p119
asI85
(lp120
sI86
(lp121
sI87
(lp122
sI88
(lp123
sI89
(lp124
sI90
(lp125
sI91
(lp126
sI92
(lp127
sI93
(lp128
sI94
(lp129
V9#9_62
p130
aV9#9_63
p131
asI95
(lp132
V5#5_36
p133
asI96
(lp134
sI97
(lp135
sI98
(lp136
sI99
(lp137
sI100
(lp138
sI101
(lp139
sI102
(lp140
sI103
(lp141
sI104
(lp142
sI105
(lp143
V9#9_57
p144
aV9#9_60
p145
aV8#8_54
p146
asI106
(lp147
sI107
(lp148
sI108
(lp149
V3#3_25
p150
aV3#3_23
p151
aV2#2_19
p152
aV4#4_32
p153
aV4#4_33
p154
aV6#6_44
p155
aV6#6_43
p156
asI109
(lp157
V3#3_25
p158
aV3#3_23
p159
aV2#2_19
p160
asI110
(lp161
V2#2_19
p162
asI111
(lp163
sI112
(lp164
sI113
(lp165
sI114
(lp166
sI115
(lp167
sI116
(lp168
sI117
(lp169
sI118
(lp170
sI119
(lp171
sI120
(lp172
sI121
(lp173
sI122
(lp174
sI123
(lp175
sI124
(lp176
sI125
(lp177
sI126
(lp178
sI127
(lp179
sI128
(lp180
sI129
(lp181
sI130
(lp182
sI131
(lp183
sI132
(lp184
sI133
(lp185
sI134
(lp186
sI135
(lp187
sI136
(lp188
sI137
(lp189
sI138
(lp190
sI139
(lp191
sI140
(lp192
sI141
(lp193
sI142
(lp194
sI143
(lp195
sI144
(lp196
sI145
(lp197
sI146
(lp198
sI147
(lp199
sI148
(lp200
sI149
(lp201
sI150
(lp202
sI151
(lp203
sI152
(lp204
sI153
(lp205
V1#1_18
p206
aV1#1_13
p207
aV1#1_12
p208
aV1#1_11
p209
aV1#1_10
p210
aV1#1_17
p211
aV1#1_16
p212
aV1#1_15
p213
aV1#1_14
p214
aV1#1_9
p215
aV0#0_8
p216
aV0#0_6
p217
aV0#0_7
p218
aV0#0_4
p219
aV0#0_5
p220
aV0#0_2
p221
aV0#0_3
p222
aV0#0_0
p223
aV0#0_1
p224
aV3#3_24
p225
aV3#3_25
p226
aV3#3_26
p227
aV3#3_22
p228
aV3#3_23
p229
aV2#2_19
p230
aV2#2_21
p231
aV2#2_20
p232
aV5#5_39
p233
aV5#5_38
p234
aV5#5_40
p235
aV5#5_41
p236
aV5#5_37
p237
aV5#5_36
p238
aV4#4_27
p239
aV4#4_29
p240
aV4#4_28
p241
aV4#4_32
p242
aV4#4_33
p243
aV4#4_30
p244
aV4#4_31
p245
aV4#4_34
p246
aV4#4_35
p247
aV7#7_51
p248
aV7#7_50
p249
aV6#6_49
p250
aV6#6_48
p251
aV6#6_45
p252
aV6#6_44
p253
aV6#6_47
p254
aV6#6_46
p255
aV6#6_43
p256
aV6#6_42
p257
aV9#9_59
p258
aV9#9_58
p259
aV9#9_57
p260
aV9#9_56
p261
aV9#9_55
p262
aV9#9_61
p263
aV9#9_62
p264
aV9#9_63
p265
aV9#9_60
p266
aV8#8_54
p267
aV8#8_52
p268
aV8#8_53
p269
asI154
(lp270
sI155
(lp271
sI156
(lp272
sI157
(lp273
sI158
(lp274
sI159
(lp275
sI160
(lp276
sI161
(lp277
sI162
(lp278
sI163
(lp279
sI164
(lp280
sI165
(lp281
sI166
(lp282
sI167
(lp283
sI168
(lp284
sI169
(lp285
V0#None
p286
aV4#None
p287
asI170
(lp288
sI171
(lp289
sI172
(lp290
V2#None
p291
asI173
(lp292
sI174
(lp293
sI175
(lp294
V3#3_24
p295
aV3#3_26
p296
aV2#2_21
p297
aV2#2_20
p298
aV4#4_34
p299
aV6#6_49
p300
aV6#6_48
p301
aV6#6_45
p302
aV6#6_47
p303
aV6#6_46
p304
asI176
(lp305
V2#2_21
p306
aV2#2_20
p307
asI177
(lp308
sI178
(lp309
V2#None
p310
asI179
(lp311
sI180
(lp312
sI181
(lp313
sI182
(lp314
sI183
(lp315
sI184
(lp316
sI185
(lp317
sI186
(lp318
sI187
(lp319
V5#None
p320
asI188
(lp321
sI189
(lp322
sI190
(lp323
sI191
(lp324
sI192
(lp325
sI193
(lp326
V0#0_0
p327
aV4#4_27
p328
asI194
(lp329
V6#None
p330
aV3#None
p331
aV0#0_4
p332
aV0#0_2
p333
aV0#0_1
p334
aV4#4_29
p335
aV4#4_28
p336
asI195
(lp337
V2#None
p338
asI196
(lp339
V1#None
p340
aV3#None
p341
asI197
(lp342
V9#None
p343
asI198
(lp344
V7#None
p345
asI199
(lp346
V8#None
p347
aV1#1_9
p348
aV3#3_22
p349
aV7#7_50
p350
as.