(dp0
(I199
V1_18
p1
tp2
((lp3
I199
aI197
aI173
aI110
aI98
aI57
a(lp4
I145
atp5
s(I108
V6_46
p6
tp7
((lp8
I108
aI109
aI106
aI175
a(lp9
I122
atp10
s(I193
V0_4
p11
tp12
((lp13
I193
aI177
aI85
aI6
aI0
aI109
aI190
aI194
a(lp14
I139
atp15
s(I194
V4_35
p16
tp17
((lp18
I194
aI190
aI83
aI2
aI107
aI84
a(lp19
I147
atp20
s(I199
V1_15
p21
tp22
(g3
(lp23
I144
atp24
s(I58
V8_54
p25
tp26
((lp27
I58
aI15
aI7
aI105
a(lp28
I157
atp29
s(I95
V5_38
p30
tp31
((lp32
I95
aI5
aI6
aI57
a(lp33
I91
atp34
s(I57
V9_59
p35
tp36
((lp37
I57
aI6
aI15
aI58
a(lp38
I103
atp39
s(I105
V9_63
p40
tp41
((lp42
I105
aI7
aI3
aI94
a(lp43
I134
atp44
s(I199
V7_51
p45
tp46
(g3
(lp47
I127
atp48
s(I194
V3_22
p49
tp50
(g18
(lp51
I80
atp52
s(I169
V0_0
p53
tp54
((lp55
I169
aI112
aI3
aI6
aI85
aI177
aI193
a(lp56
I126
atp57
s(I187
V5_36
p58
tp59
((lp60
I187
aI112
aI95
a(lp61
I81
atp62
s(I110
V2_21
p63
tp64
((lp65
I110
aI112
aI106
a(lp66
I112
atp67
s(I199
V1_10
p68
tp69
(g3
(lp70
I140
atp71
s(I57
V8_53
p72
tp73
(g37
(lp74
I129
atp75
s(I84
V3_25
p76
tp77
((lp78
I84
aI7
aI108
a(lp79
I97
atp80
s(I57
V9_56
p81
tp82
(g37
(lp83
I101
atp84
s(I172
V2_19
p85
tp86
((lp87
I172
aI90
aI104
aI109
a(lp88
I93
atp89
s(I193
V0_1
p90
tp91
(g13
(lp92
I137
atp93
s(I109
V3_26
p94
tp95
((lp96
I109
aI0
aI103
aI176
a(lp97
I159
atp98
s(I57
V9_61
p99
tp100
(g37
(lp101
I104
atp102
s(I84
V6_44
p103
tp104
(g78
(lp105
I106
atp106
s(I195
g85
tp107
((lp108
I195
aI175
aI106
aI112
aI110
a(lp109
I94
atp110
s(I57
V5_39
p111
tp112
(g37
(lp113
I110
atp114
s(I95
V5_41
p115
tp116
(g32
(lp117
I89
atp118
s(I194
V6_42
p119
tp120
(g18
(lp121
I85
atp122
s(I105
V9_62
p123
tp124
(g42
(lp125
I133
atp126
s(I109
V2_20
p127
tp128
((lp129
I109
aI3
aI7
aI105
a(lp130
I107
atp131
s(I108
V6_45
p132
tp133
(g8
(lp134
I116
atp135
s(I169
V4_27
p136
tp137
(g55
(lp138
I120
atp139
s(I110
g127
tp140
(g65
(lp141
I111
atp142
s(I194
V0_6
p143
tp144
(g18
(lp145
I153
atp146
s(I199
V1_11
p147
tp148
(g3
(lp149
I141
atp150
s(I108
V3_24
p151
tp152
(g8
(lp153
I113
atp154
s(I108
V4_34
p155
tp156
(g8
(lp157
I156
atp158
s(I194
V4_30
p159
tp160
(g18
(lp161
I146
atp162
s(I199
V1_12
p163
tp164
(g3
(lp165
I142
atp166
s(I199
V3_23
p167
tp168
((lp169
I199
aI197
aI173
aI110
aI0
aI109
a(lp170
I131
atp171
s(I95
V5_37
p172
tp173
(g32
(lp174
I90
atp175
s(I108
V6_48
p176
tp177
(g8
(lp178
I121
atp179
s(I108
g127
tp180
(g8
(lp181
I95
atp182
s(I178
g85
tp183
((lp184
I178
aI107
aI7
aI108
a(lp185
I83
atp186
s(I194
V4_31
p187
tp188
(g18
(lp189
I148
atp190
s(I109
g63
tp191
(g129
(lp192
I108
atp193
s(I193
V4_28
p194
tp195
(g13
(lp196
I135
atp197
s(I84
V6_43
p198
tp199
(g78
(lp200
I105
atp201
s(I109
g151
tp202
(g96
(lp203
I158
atp204
s(I58
V9_57
p205
tp206
(g27
(lp207
I119
atp208
s(I108
V6_49
p209
tp210
(g8
(lp211
I115
atp212
s(I84
V4_33
p213
tp214
(g78
(lp215
I149
atp216
s(I58
V9_60
p217
tp218
(g27
(lp219
I128
atp220
s(I197
V9_55
p221
tp222
((lp223
I197
aI173
aI110
aI98
aI57
a(lp224
I92
atp225
s(I57
V5_40
p226
tp227
(g37
(lp228
I109
atp229
s(I194
V0_7
p230
tp231
(g18
(lp232
I154
atp233
s(I108
g63
tp234
(g8
(lp235
I96
atp236
s(I84
g167
tp237
(g78
(lp238
I98
atp239
s(I193
V4_29
p240
tp241
(g13
(lp242
I136
atp243
s(I194
V0_3
p244
tp245
(g18
(lp246
I151
atp247
s(I108
V6_47
p248
tp249
(g8
(lp250
I117
atp251
s(I199
V8_52
p252
tp253
(g3
(lp254
I100
atp255
s(I84
V4_32
p256
tp257
(g78
(lp258
I155
atp259
s(I57
V9_58
p260
tp261
(g37
(lp262
I102
atp263
s(I108
g94
tp264
(g8
(lp265
I114
atp266
s(I194
V0_8
p267
tp268
(g18
(lp269
I150
atp270
s(I193
V0_2
p271
tp272
(g13
(lp273
I138
atp274
s(I199
g76
tp275
(g169
(lp276
I130
atp277
s(I196
V1_9
p278
tp279
((lp280
I196
aI185
aI112
aI110
aI173
aI197
aI199
a(lp281
I132
atp282
s(I199
V1_13
p283
tp284
(g3
(lp285
I143
atp286
s(I194
V0_5
p287
tp288
(g18
(lp289
I152
atp290
s(I198
V7_50
p291
tp292
((lp293
I198
aI196
aI185
aI112
aI110
aI173
aI197
aI199
a(lp294
I99
atp295
s(I196
g49
tp296
(g280
(lp297
I125
atp298
s.