(dp0
(I199
V1_18
p1
tp2
((lp3
I199
aI197
aI173
aI110
aI98
aI57
a(lp4
I151
atp5
s(I108
V6_46
p6
tp7
((lp8
I108
aI109
aI106
aI175
a(lp9
I113
atp10
s(I194
V4_31
p11
tp12
((lp13
I194
aI190
aI83
aI2
aI107
aI84
a(lp14
I156
atp15
s(I194
V4_35
p16
tp17
(g13
(lp18
I155
atp19
s(I199
V1_15
p20
tp21
(g3
(lp22
I150
atp23
s(I95
V5_38
p24
tp25
((lp26
I95
aI5
aI6
aI57
a(lp27
I86
atp28
s(I57
V9_59
p29
tp30
((lp31
I57
aI6
aI15
aI58
a(lp32
I110
atp33
s(I194
V0_3
p34
tp35
(g13
(lp36
I137
atp37
s(I199
V7_51
p38
tp39
(g3
(lp40
I127
atp41
s(I194
V3_22
p42
tp43
(g13
(lp44
I107
atp45
s(I169
V0_0
p46
tp47
((lp48
I169
aI112
aI3
aI6
aI85
aI177
aI193
a(lp49
I89
atp50
s(I187
V5_36
p51
tp52
((lp53
I187
aI112
aI95
a(lp54
I79
atp55
s(I110
V2_21
p56
tp57
((lp58
I110
aI4
aI7
a(lp59
I132
atp60
s(I194
V0_6
p61
tp62
(g13
(lp63
I139
atp64
s(I57
V9_58
p65
tp66
(g31
(lp67
I109
atp68
s(I84
V3_25
p69
tp70
((lp71
I84
aI7
aI108
a(lp72
I129
atp73
s(I57
V9_56
p74
tp75
(g31
(lp76
I108
atp77
s(I172
V2_19
p78
tp79
((lp80
I172
aI64
aI105
aI112
aI110
a(lp81
I116
atp82
s(I193
V0_1
p83
tp84
((lp85
I193
aI177
aI85
aI6
aI0
aI109
aI190
aI194
a(lp86
I117
atp87
s(I57
V3_24
p88
tp89
(g31
(lp90
I152
atp91
s(I108
V6_49
p92
tp93
(g8
(lp94
I100
atp95
s(I197
V9_55
p96
tp97
((lp98
I197
aI173
aI110
aI98
aI57
a(lp99
I92
atp100
s(I195
g78
tp101
((lp102
I195
aI175
aI106
aI109
a(lp103
I114
atp104
s(I57
V5_39
p105
tp106
(g31
(lp107
I105
atp108
s(I95
V5_41
p109
tp110
(g26
(lp111
I84
atp112
s(I194
V6_42
p113
tp114
(g13
(lp115
I81
atp116
s(I105
V9_62
p117
tp118
((lp119
I105
aI7
aI3
aI94
a(lp120
I144
atp121
s(I109
V2_20
p122
tp123
((lp124
I109
aI0
aI103
aI176
a(lp125
I125
atp126
s(I108
V6_45
p127
tp128
(g8
(lp129
I101
atp130
s(I193
V0_4
p131
tp132
(g85
(lp133
I119
atp134
s(I110
g122
tp135
(g58
(lp136
I131
atp137
s(I194
V0_7
p138
tp139
(g13
(lp140
I140
atp141
s(I108
g88
tp142
(g8
(lp143
I142
atp144
s(I194
V4_30
p145
tp146
(g13
(lp147
I154
atp148
s(I199
V1_12
p149
tp150
(g3
(lp151
I148
atp152
s(I199
V3_23
p153
tp154
(g3
(lp155
I124
atp156
s(I95
V5_37
p157
tp158
(g26
(lp159
I85
atp160
s(I108
V6_48
p161
tp162
(g8
(lp163
I112
atp164
s(I108
g122
tp165
(g8
(lp166
I121
atp167
s(I178
g78
tp168
((lp169
I178
aI107
aI7
aI108
a(lp170
I99
atp171
s(I199
V1_11
p172
tp173
(g3
(lp174
I147
atp175
s(I169
V4_27
p176
tp177
(g48
(lp178
I94
atp179
s(I193
V4_28
p180
tp181
(g85
(lp182
I134
atp183
s(I199
g69
tp184
(g3
(lp185
I123
atp186
s(I84
V6_43
p187
tp188
(g71
(lp189
I96
atp190
s(I105
V9_63
p191
tp192
(g119
(lp193
I145
atp194
s(I58
V9_57
p195
tp196
((lp197
I58
aI15
aI7
aI105
a(lp198
I133
atp199
s(I57
V9_61
p200
tp201
(g31
(lp202
I111
atp203
s(I84
V4_33
p204
tp205
(g71
(lp206
I157
atp207
s(I58
V9_60
p208
tp209
(g197
(lp210
I141
atp211
s(I84
V6_44
p212
tp213
(g71
(lp214
I97
atp215
s(I57
V5_40
p216
tp217
(g31
(lp218
I104
atp219
s(I199
V1_13
p220
tp221
(g3
(lp222
I149
atp223
s(I108
g56
tp224
(g8
(lp225
I122
atp226
s(I84
g153
tp227
(g71
(lp228
I130
atp229
s(I193
V4_29
p230
tp231
(g85
(lp232
I135
atp233
s(I199
V1_10
p234
tp235
(g3
(lp236
I146
atp237
s(I108
V6_47
p238
tp239
(g8
(lp240
I102
atp241
s(I199
V8_52
p242
tp243
(g3
(lp244
I82
atp245
s(I84
V4_32
p246
tp247
(g71
(lp248
I158
atp249
s(I57
V8_53
p250
tp251
(g31
(lp252
I103
atp253
s(I108
V3_26
p254
tp255
(g8
(lp256
I143
atp257
s(I194
V0_8
p258
tp259
(g13
(lp260
I136
atp261
s(I193
V0_2
p262
tp263
(g85
(lp264
I118
atp265
s(I58
V8_54
p266
tp267
(g197
(lp268
I120
atp269
s(I196
V1_9
p270
tp271
((lp272
I196
aI185
aI112
aI110
aI173
aI197
aI199
a(lp273
I128
atp274
s(I57
g254
tp275
(g31
(lp276
I153
atp277
s(I109
g56
tp278
(g124
(lp279
I126
atp280
s(I194
V0_5
p281
tp282
(g13
(lp283
I138
atp284
s(I198
V7_50
p285
tp286
((lp287
I198
aI196
aI185
aI112
aI110
aI173
aI197
aI199
a(lp288
I91
atp289
s(I196
g42
tp290
(g272
(lp291
I95
atp292
s.