(dp0
I0
(lp1
sI1
(lp2
sI2
(lp3
sI3
(lp4
sI4
(lp5
sI5
(lp6
sI6
(lp7
sI7
(lp8
V2#2_21
p9
aV2#2_20
p10
asI8
(lp11
V2#2_21
p12
aV2#2_20
p13
asI9
(lp14
sI10
(lp15
sI11
(lp16
sI12
(lp17
sI13
(lp18
sI14
(lp19
sI15
(lp20
sI16
(lp21
sI17
(lp22
sI18
(lp23
sI19
(lp24
sI20
(lp25
sI21
(lp26
sI22
(lp27
sI23
(lp28
sI24
(lp29
sI25
(lp30
sI26
(lp31
sI27
(lp32
sI28
(lp33
sI29
(lp34
sI30
(lp35
sI31
(lp36
sI32
(lp37
sI33
(lp38
sI34
(lp39
sI35
(lp40
sI36
(lp41
sI37
(lp42
sI38
(lp43
sI39
(lp44
sI40
(lp45
sI41
(lp46
sI42
(lp47
sI43
(lp48
sI44
(lp49
sI45
(lp50
sI46
(lp51
sI47
(lp52
sI48
(lp53
sI49
(lp54
sI50
(lp55
sI51
(lp56
sI52
(lp57
sI53
(lp58
sI54
(lp59
sI55
(lp60
sI56
(lp61
sI57
(lp62
V1#1_18
p63
aV1#1_13
p64
aV1#1_12
p65
aV1#1_11
p66
aV1#1_10
p67
aV1#1_15
p68
aV3#3_25
p69
aV3#3_23
p70
aV5#5_38
p71
aV5#5_41
p72
aV5#5_37
p73
aV9#9_55
p74
aV8#8_52
p75
asI58
(lp76
V1#1_17
p77
aV1#1_16
p78
aV1#1_14
p79
aV3#3_24
p80
aV3#3_26
p81
aV5#5_39
p82
aV5#5_40
p83
aV9#9_59
p84
aV9#9_58
p85
aV9#9_56
p86
aV9#9_61
p87
aV8#8_53
p88
asI59
(lp89
sI60
(lp90
sI61
(lp91
sI62
(lp92
sI63
(lp93
sI64
(lp94
sI65
(lp95
sI66
(lp96
sI67
(lp97
sI68
(lp98
sI69
(lp99
sI70
(lp100
sI71
(lp101
sI72
(lp102
sI73
(lp103
sI74
(lp104
sI75
(lp105
sI76
(lp106
sI77
(lp107
sI78
(lp108
sI79
(lp109
sI80
(lp110
sI81
(lp111
sI82
(lp112
sI83
(lp113
sI84
(lp114
V0#0_8
p115
aV0#0_6
p116
aV0#0_7
p117
aV0#0_5
p118
aV0#0_3
p119
aV3#3_22
p120
aV4#4_30
p121
aV4#4_31
p122
aV4#4_35
p123
aV6#6_42
p124
asI85
(lp125
sI86
(lp126
sI87
(lp127
sI88
(lp128
sI89
(lp129
sI90
(lp130
sI91
(lp131
V2#2_19
p132
asI92
(lp133
V2#2_19
p134
asI93
(lp135
V2#2_21
p136
aV2#2_20
p137
asI94
(lp138
V9#9_62
p139
aV9#9_63
p140
asI95
(lp141
V5#5_36
p142
asI96
(lp143
sI97
(lp144
sI98
(lp145
sI99
(lp146
sI100
(lp147
sI101
(lp148
sI102
(lp149
sI103
(lp150
sI104
(lp151
sI105
(lp152
V9#9_57
p153
aV9#9_60
p154
aV8#8_54
p155
asI106
(lp156
sI107
(lp157
sI108
(lp158
V3#3_25
p159
aV3#3_23
p160
aV2#2_19
p161
aV6#6_44
p162
aV6#6_43
p163
asI109
(lp164
sI110
(lp165
sI111
(lp166
sI112
(lp167
sI113
(lp168
sI114
(lp169
sI115
(lp170
sI116
(lp171
sI117
(lp172
sI118
(lp173
sI119
(lp174
sI120
(lp175
sI121
(lp176
sI122
(lp177
sI123
(lp178
sI124
(lp179
sI125
(lp180
sI126
(lp181
sI127
(lp182
sI128
(lp183
sI129
(lp184
sI130
(lp185
sI131
(lp186
sI132
(lp187
sI133
(lp188
sI134
(lp189
sI135
(lp190
sI136
(lp191
sI137
(lp192
sI138
(lp193
sI139
(lp194
sI140
(lp195
sI141
(lp196
sI142
(lp197
sI143
(lp198
sI144
(lp199
sI145
(lp200
sI146
(lp201
sI147
(lp202
sI148
(lp203
sI149
(lp204
sI150
(lp205
sI151
(lp206
sI152
(lp207
sI153
(lp208
V1#1_18
p209
aV1#1_13
p210
aV1#1_12
p211
aV1#1_11
p212
aV1#1_10
p213
aV1#1_17
p214
aV1#1_16
p215
aV1#1_15
p216
aV1#1_14
p217
aV1#1_9
p218
aV0#0_8
p219
aV0#0_6
p220
aV0#0_7
p221
aV0#0_4
p222
aV0#0_5
p223
aV0#0_2
p224
aV0#0_3
p225
aV0#0_0
p226
aV0#0_1
p227
aV3#3_24
p228
aV3#3_25
p229
aV3#3_26
p230
aV3#3_22
p231
aV3#3_23
p232
aV2#2_19
p233
aV2#2_21
p234
aV2#2_20
p235
aV5#5_39
p236
aV5#5_38
p237
aV5#5_40
p238
aV5#5_41
p239
aV5#5_37
p240
aV5#5_36
p241
aV4#4_27
p242
aV4#4_29
p243
aV4#4_28
p244
aV4#4_32
p245
aV4#4_33
p246
aV4#4_30
p247
aV4#4_31
p248
aV4#4_34
p249
aV4#4_35
p250
aV7#7_51
p251
aV7#7_50
p252
aV6#6_49
p253
aV6#6_48
p254
aV6#6_45
p255
aV6#6_44
p256
aV6#6_47
p257
aV6#6_46
p258
aV6#6_43
p259
aV6#6_42
p260
aV9#9_59
p261
aV9#9_58
p262
aV9#9_57
p263
aV9#9_56
p264
aV9#9_55
p265
aV9#9_61
p266
aV9#9_62
p267
aV9#9_63
p268
aV9#9_60
p269
aV8#8_54
p270
aV8#8_52
p271
aV8#8_53
p272
asI154
(lp273
sI155
(lp274
sI156
(lp275
sI157
(lp276
sI158
(lp277
sI159
(lp278
sI160
(lp279
sI161
(lp280
sI162
(lp281
sI163
(lp282
sI164
(lp283
sI165
(lp284
sI166
(lp285
sI167
(lp286
sI168
(lp287
sI169
(lp288
V0#None
p289
aV4#None
p290
asI170
(lp291
sI171
(lp292
sI172
(lp293
V2#None
p294
asI173
(lp295
sI174
(lp296
sI175
(lp297
V3#3_24
p298
aV3#3_26
p299
aV6#6_49
p300
aV6#6_48
p301
aV6#6_45
p302
aV6#6_47
p303
aV6#6_46
p304
asI176
(lp305
sI177
(lp306
sI178
(lp307
V2#None
p308
asI179
(lp309
sI180
(lp310
sI181
(lp311
sI182
(lp312
sI183
(lp313
sI184
(lp314
sI185
(lp315
sI186
(lp316
sI187
(lp317
V5#None
p318
asI188
(lp319
sI189
(lp320
sI190
(lp321
sI191
(lp322
sI192
(lp323
sI193
(lp324
V0#0_0
p325
aV4#4_27
p326
asI194
(lp327
V6#None
p328
aV3#None
p329
aV0#0_4
p330
aV0#0_2
p331
aV0#0_1
p332
aV4#4_29
p333
aV4#4_28
p334
asI195
(lp335
V2#None
p336
asI196
(lp337
V1#None
p338
aV3#None
p339
asI197
(lp340
V9#None
p341
asI198
(lp342
V7#None
p343
asI199
(lp344
V8#None
p345
aV1#1_9
p346
aV3#3_22
p347
aV7#7_50
p348
as.