(dp0
I0
(lp1
sI1
(lp2
sI2
(lp3
sI3
(lp4
sI4
(lp5
sI5
(lp6
sI6
(lp7
sI7
(lp8
sI8
(lp9
sI9
(lp10
sI10
(lp11
sI11
(lp12
sI12
(lp13
sI13
(lp14
sI14
(lp15
sI15
(lp16
sI16
(lp17
sI17
(lp18
sI18
(lp19
sI19
(lp20
sI20
(lp21
sI21
(lp22
sI22
(lp23
sI23
(lp24
sI24
(lp25
sI25
(lp26
sI26
(lp27
sI27
(lp28
sI28
(lp29
sI29
(lp30
sI30
(lp31
sI31
(lp32
sI32
(lp33
sI33
(lp34
sI34
(lp35
sI35
(lp36
sI36
(lp37
sI37
(lp38
sI38
(lp39
sI39
(lp40
sI40
(lp41
sI41
(lp42
sI42
(lp43
sI43
(lp44
sI44
(lp45
sI45
(lp46
sI46
(lp47
sI47
(lp48
sI48
(lp49
sI49
(lp50
sI50
(lp51
sI51
(lp52
sI52
(lp53
sI53
(lp54
sI54
(lp55
sI55
(lp56
sI56
(lp57
sI57
(lp58
V1#1_18
p59
aV1#1_13
p60
aV1#1_12
p61
aV1#1_11
p62
aV1#1_10
p63
aV1#1_15
p64
aV5#5_38
p65
aV5#5_41
p66
aV5#5_37
p67
aV7#7_51
p68
aV9#9_55
p69
aV8#8_52
p70
asI58
(lp71
V1#1_17
p72
aV1#1_16
p73
aV1#1_14
p74
aV5#5_39
p75
aV5#5_40
p76
aV9#9_59
p77
aV9#9_58
p78
aV9#9_56
p79
aV9#9_61
p80
aV8#8_53
p81
asI59
(lp82
sI60
(lp83
sI61
(lp84
sI62
(lp85
sI63
(lp86
sI64
(lp87
sI65
(lp88
sI66
(lp89
sI67
(lp90
sI68
(lp91
sI69
(lp92
sI70
(lp93
sI71
(lp94
sI72
(lp95
sI73
(lp96
sI74
(lp97
sI75
(lp98
sI76
(lp99
sI77
(lp100
sI78
(lp101
V2#2_21
p102
aV2#2_20
p103
asI79
(lp104
V2#2_21
p105
aV2#2_20
p106
asI80
(lp107
sI81
(lp108
sI82
(lp109
sI83
(lp110
sI84
(lp111
V0#0_8
p112
aV0#0_6
p113
aV0#0_7
p114
aV0#0_5
p115
aV0#0_3
p116
aV3#3_22
p117
aV4#4_30
p118
aV4#4_31
p119
aV4#4_35
p120
aV6#6_42
p121
asI85
(lp122
sI86
(lp123
sI87
(lp124
sI88
(lp125
sI89
(lp126
sI90
(lp127
sI91
(lp128
sI92
(lp129
sI93
(lp130
sI94
(lp131
V9#9_62
p132
aV9#9_63
p133
asI95
(lp134
V5#5_36
p135
asI96
(lp136
sI97
(lp137
sI98
(lp138
sI99
(lp139
sI100
(lp140
sI101
(lp141
sI102
(lp142
sI103
(lp143
sI104
(lp144
sI105
(lp145
V2#2_21
p146
aV2#2_20
p147
aV9#9_57
p148
aV9#9_60
p149
asI106
(lp150
sI107
(lp151
sI108
(lp152
V3#3_25
p153
aV3#3_23
p154
aV2#2_19
p155
aV4#4_32
p156
aV4#4_33
p157
aV6#6_44
p158
aV6#6_43
p159
asI109
(lp160
V3#3_25
p161
aV3#3_23
p162
aV2#2_19
p163
asI110
(lp164
sI111
(lp165
sI112
(lp166
sI113
(lp167
sI114
(lp168
sI115
(lp169
sI116
(lp170
sI117
(lp171
sI118
(lp172
sI119
(lp173
sI120
(lp174
sI121
(lp175
sI122
(lp176
sI123
(lp177
sI124
(lp178
sI125
(lp179
sI126
(lp180
sI127
(lp181
sI128
(lp182
sI129
(lp183
sI130
(lp184
sI131
(lp185
sI132
(lp186
sI133
(lp187
sI134
(lp188
sI135
(lp189
sI136
(lp190
sI137
(lp191
sI138
(lp192
sI139
(lp193
sI140
(lp194
sI141
(lp195
sI142
(lp196
sI143
(lp197
sI144
(lp198
sI145
(lp199
sI146
(lp200
sI147
(lp201
sI148
(lp202
sI149
(lp203
sI150
(lp204
sI151
(lp205
sI152
(lp206
sI153
(lp207
V1#1_18
p208
aV1#1_13
p209
aV1#1_12
p210
aV1#1_11
p211
aV1#1_10
p212
aV1#1_17
p213
aV1#1_16
p214
aV1#1_15
p215
aV1#1_14
p216
aV1#1_9
p217
aV0#0_8
p218
aV0#0_6
p219
aV0#0_7
p220
aV0#0_4
p221
aV0#0_5
p222
aV0#0_2
p223
aV0#0_3
p224
aV0#0_0
p225
aV0#0_1
p226
aV3#3_24
p227
aV3#3_25
p228
aV3#3_26
p229
aV3#3_22
p230
aV3#3_23
p231
aV2#2_19
p232
aV2#2_21
p233
aV2#2_20
p234
aV5#5_39
p235
aV5#5_38
p236
aV5#5_40
p237
aV5#5_41
p238
aV5#5_37
p239
aV5#5_36
p240
aV4#4_27
p241
aV4#4_29
p242
aV4#4_28
p243
aV4#4_32
p244
aV4#4_33
p245
aV4#4_30
p246
aV4#4_31
p247
aV4#4_34
p248
aV4#4_35
p249
aV7#7_51
p250
aV7#7_50
p251
aV6#6_49
p252
aV6#6_48
p253
aV6#6_45
p254
aV6#6_44
p255
aV6#6_47
p256
aV6#6_46
p257
aV6#6_43
p258
aV6#6_42
p259
aV9#9_59
p260
aV9#9_58
p261
aV9#9_57
p262
aV9#9_56
p263
aV9#9_55
p264
aV9#9_61
p265
aV9#9_62
p266
aV9#9_63
p267
aV9#9_60
p268
aV8#8_54
p269
aV8#8_52
p270
aV8#8_53
p271
asI154
(lp272
sI155
(lp273
sI156
(lp274
sI157
(lp275
sI158
(lp276
sI159
(lp277
sI160
(lp278
sI161
(lp279
sI162
(lp280
sI163
(lp281
sI164
(lp282
sI165
(lp283
sI166
(lp284
sI167
(lp285
sI168
(lp286
sI169
(lp287
V4#None
p288
aV0#None
p289
asI170
(lp290
sI171
(lp291
sI172
(lp292
V2#None
p293
asI173
(lp294
sI174
(lp295
sI175
(lp296
V3#3_24
p297
aV3#3_26
p298
aV4#4_34
p299
aV6#6_49
p300
aV6#6_48
p301
aV6#6_45
p302
aV6#6_47
p303
aV6#6_46
p304
asI176
(lp305
V3#3_24
p306
aV3#3_26
p307
aV2#2_19
p308
asI177
(lp309
sI178
(lp310
V2#None
p311
asI179
(lp312
sI180
(lp313
sI181
(lp314
sI182
(lp315
sI183
(lp316
sI184
(lp317
sI185
(lp318
sI186
(lp319
sI187
(lp320
V5#None
p321
asI188
(lp322
sI189
(lp323
sI190
(lp324
sI191
(lp325
sI192
(lp326
sI193
(lp327
V0#0_0
p328
aV4#4_27
p329
asI194
(lp330
V3#None
p331
aV6#None
p332
aV0#0_4
p333
aV0#0_2
p334
aV0#0_1
p335
aV4#4_29
p336
aV4#4_28
p337
asI195
(lp338
V2#None
p339
asI196
(lp340
V1#None
p341
aV3#None
p342
asI197
(lp343
V9#None
p344
asI198
(lp345
V7#None
p346
asI199
(lp347
V8#None
p348
aV1#1_9
p349
aV3#3_22
p350
aV7#7_50
p351
as.