(dp0
I0
(lp1
sI1
(lp2
sI2
(lp3
sI3
(lp4
sI4
(lp5
sI5
(lp6
sI6
(lp7
sI7
(lp8
V2#2_21
p9
aV2#2_20
p10
asI8
(lp11
sI9
(lp12
sI10
(lp13
sI11
(lp14
sI12
(lp15
sI13
(lp16
sI14
(lp17
sI15
(lp18
sI16
(lp19
sI17
(lp20
sI18
(lp21
sI19
(lp22
sI20
(lp23
sI21
(lp24
sI22
(lp25
sI23
(lp26
sI24
(lp27
sI25
(lp28
sI26
(lp29
sI27
(lp30
sI28
(lp31
sI29
(lp32
sI30
(lp33
sI31
(lp34
sI32
(lp35
sI33
(lp36
sI34
(lp37
sI35
(lp38
sI36
(lp39
sI37
(lp40
sI38
(lp41
sI39
(lp42
sI40
(lp43
sI41
(lp44
sI42
(lp45
sI43
(lp46
sI44
(lp47
sI45
(lp48
sI46
(lp49
sI47
(lp50
sI48
(lp51
sI49
(lp52
sI50
(lp53
sI51
(lp54
sI52
(lp55
sI53
(lp56
sI54
(lp57
sI55
(lp58
sI56
(lp59
sI57
(lp60
V1#1_18
p61
aV1#1_13
p62
aV1#1_12
p63
aV1#1_11
p64
aV1#1_10
p65
aV1#1_15
p66
aV3#3_25
p67
aV3#3_23
p68
aV5#5_38
p69
aV5#5_41
p70
aV5#5_37
p71
aV7#7_51
p72
aV9#9_55
p73
aV8#8_52
p74
asI58
(lp75
V3#3_24
p76
aV3#3_26
p77
aV5#5_39
p78
aV5#5_40
p79
aV9#9_59
p80
aV9#9_58
p81
aV9#9_56
p82
aV9#9_61
p83
aV8#8_53
p84
asI59
(lp85
sI60
(lp86
sI61
(lp87
sI62
(lp88
sI63
(lp89
sI64
(lp90
sI65
(lp91
sI66
(lp92
sI67
(lp93
sI68
(lp94
sI69
(lp95
sI70
(lp96
sI71
(lp97
sI72
(lp98
sI73
(lp99
sI74
(lp100
sI75
(lp101
sI76
(lp102
sI77
(lp103
sI78
(lp104
sI79
(lp105
sI80
(lp106
sI81
(lp107
sI82
(lp108
sI83
(lp109
sI84
(lp110
V0#0_8
p111
aV0#0_6
p112
aV0#0_7
p113
aV0#0_5
p114
aV0#0_3
p115
aV3#3_22
p116
aV4#4_30
p117
aV4#4_31
p118
aV4#4_35
p119
aV6#6_42
p120
asI85
(lp121
sI86
(lp122
sI87
(lp123
sI88
(lp124
sI89
(lp125
sI90
(lp126
sI91
(lp127
sI92
(lp128
sI93
(lp129
sI94
(lp130
V9#9_62
p131
aV9#9_63
p132
asI95
(lp133
V5#5_36
p134
asI96
(lp135
sI97
(lp136
sI98
(lp137
sI99
(lp138
sI100
(lp139
sI101
(lp140
sI102
(lp141
sI103
(lp142
sI104
(lp143
sI105
(lp144
V9#9_57
p145
aV9#9_60
p146
aV8#8_54
p147
asI106
(lp148
sI107
(lp149
sI108
(lp150
V3#3_25
p151
aV3#3_23
p152
aV2#2_19
p153
aV4#4_32
p154
aV4#4_33
p155
aV6#6_44
p156
aV6#6_43
p157
asI109
(lp158
V2#2_19
p159
asI110
(lp160
V2#2_19
p161
asI111
(lp162
sI112
(lp163
sI113
(lp164
sI114
(lp165
sI115
(lp166
sI116
(lp167
sI117
(lp168
sI118
(lp169
sI119
(lp170
sI120
(lp171
sI121
(lp172
sI122
(lp173
sI123
(lp174
sI124
(lp175
sI125
(lp176
sI126
(lp177
sI127
(lp178
sI128
(lp179
sI129
(lp180
sI130
(lp181
sI131
(lp182
sI132
(lp183
sI133
(lp184
sI134
(lp185
sI135
(lp186
sI136
(lp187
sI137
(lp188
sI138
(lp189
sI139
(lp190
sI140
(lp191
sI141
(lp192
sI142
(lp193
sI143
(lp194
sI144
(lp195
sI145
(lp196
sI146
(lp197
sI147
(lp198
sI148
(lp199
sI149
(lp200
sI150
(lp201
sI151
(lp202
sI152
(lp203
sI153
(lp204
V1#1_18
p205
aV1#1_13
p206
aV1#1_12
p207
aV1#1_11
p208
aV1#1_10
p209
aV1#1_17
p210
aV1#1_16
p211
aV1#1_15
p212
aV1#1_14
p213
aV1#1_9
p214
aV0#0_8
p215
aV0#0_6
p216
aV0#0_7
p217
aV0#0_4
p218
aV0#0_5
p219
aV0#0_2
p220
aV0#0_3
p221
aV0#0_0
p222
aV0#0_1
p223
aV3#3_24
p224
aV3#3_25
p225
aV3#3_26
p226
aV3#3_22
p227
aV3#3_23
p228
aV2#2_19
p229
aV2#2_21
p230
aV2#2_20
p231
aV5#5_39
p232
aV5#5_38
p233
aV5#5_40
p234
aV5#5_41
p235
aV5#5_37
p236
aV5#5_36
p237
aV4#4_27
p238
aV4#4_29
p239
aV4#4_28
p240
aV4#4_32
p241
aV4#4_33
p242
aV4#4_30
p243
aV4#4_31
p244
aV4#4_34
p245
aV4#4_35
p246
aV7#7_51
p247
aV7#7_50
p248
aV6#6_49
p249
aV6#6_48
p250
aV6#6_45
p251
aV6#6_44
p252
aV6#6_47
p253
aV6#6_46
p254
aV6#6_43
p255
aV6#6_42
p256
aV9#9_59
p257
aV9#9_58
p258
aV9#9_57
p259
aV9#9_56
p260
aV9#9_55
p261
aV9#9_61
p262
aV9#9_62
p263
aV9#9_63
p264
aV9#9_60
p265
aV8#8_54
p266
aV8#8_52
p267
aV8#8_53
p268
asI154
(lp269
sI155
(lp270
sI156
(lp271
sI157
(lp272
sI158
(lp273
sI159
(lp274
sI160
(lp275
sI161
(lp276
sI162
(lp277
sI163
(lp278
sI164
(lp279
sI165
(lp280
sI166
(lp281
sI167
(lp282
sI168
(lp283
sI169
(lp284
V4#None
p285
aV0#None
p286
asI170
(lp287
sI171
(lp288
sI172
(lp289
V2#None
p290
asI173
(lp291
sI174
(lp292
sI175
(lp293
V3#3_24
p294
aV3#3_26
p295
aV2#2_21
p296
aV2#2_20
p297
aV6#6_49
p298
aV6#6_48
p299
aV6#6_45
p300
aV6#6_47
p301
aV6#6_46
p302
asI176
(lp303
V2#2_21
p304
aV2#2_20
p305
asI177
(lp306
sI178
(lp307
V2#None
p308
asI179
(lp309
sI180
(lp310
sI181
(lp311
sI182
(lp312
sI183
(lp313
sI184
(lp314
sI185
(lp315
sI186
(lp316
sI187
(lp317
V5#None
p318
asI188
(lp319
sI189
(lp320
sI190
(lp321
sI191
(lp322
sI192
(lp323
sI193
(lp324
V0#0_0
p325
aV4#4_27
p326
asI194
(lp327
V6#None
p328
aV3#None
p329
aV0#0_4
p330
aV0#0_2
p331
aV0#0_1
p332
aV4#4_29
p333
aV4#4_28
p334
asI195
(lp335
V2#None
p336
asI196
(lp337
V1#None
p338
aV3#None
p339
asI197
(lp340
V9#None
p341
asI198
(lp342
V7#None
p343
asI199
(lp344
V8#None
p345
aV1#1_9
p346
aV3#3_22
p347
aV7#7_50
p348
as.