(dp0
I0
(lp1
sI1
(lp2
sI2
(lp3
sI3
(lp4
sI4
(lp5
sI5
(lp6
sI6
(lp7
sI7
(lp8
V2#2_21
p9
aV2#2_20
p10
asI8
(lp11
sI9
(lp12
sI10
(lp13
sI11
(lp14
sI12
(lp15
sI13
(lp16
sI14
(lp17
sI15
(lp18
sI16
(lp19
sI17
(lp20
sI18
(lp21
sI19
(lp22
sI20
(lp23
sI21
(lp24
sI22
(lp25
sI23
(lp26
sI24
(lp27
sI25
(lp28
sI26
(lp29
sI27
(lp30
sI28
(lp31
sI29
(lp32
sI30
(lp33
sI31
(lp34
sI32
(lp35
sI33
(lp36
sI34
(lp37
sI35
(lp38
sI36
(lp39
sI37
(lp40
sI38
(lp41
sI39
(lp42
sI40
(lp43
sI41
(lp44
sI42
(lp45
sI43
(lp46
sI44
(lp47
sI45
(lp48
sI46
(lp49
sI47
(lp50
sI48
(lp51
sI49
(lp52
sI50
(lp53
sI51
(lp54
sI52
(lp55
sI53
(lp56
sI54
(lp57
sI55
(lp58
sI56
(lp59
sI57
(lp60
V1#1_18
p61
aV1#1_13
p62
aV1#1_12
p63
aV1#1_11
p64
aV1#1_10
p65
aV1#1_15
p66
aV3#3_25
p67
aV3#3_23
p68
aV5#5_38
p69
aV5#5_41
p70
aV5#5_37
p71
aV7#7_51
p72
aV9#9_55
p73
aV8#8_52
p74
asI58
(lp75
V1#1_17
p76
aV1#1_16
p77
aV1#1_14
p78
aV3#3_24
p79
aV3#3_26
p80
aV5#5_39
p81
aV5#5_40
p82
aV9#9_59
p83
aV9#9_58
p84
aV9#9_56
p85
aV9#9_61
p86
aV8#8_53
p87
asI59
(lp88
V3#3_24
p89
aV3#3_26
p90
asI60
(lp91
sI61
(lp92
sI62
(lp93
sI63
(lp94
sI64
(lp95
sI65
(lp96
sI66
(lp97
sI67
(lp98
sI68
(lp99
sI69
(lp100
sI70
(lp101
sI71
(lp102
sI72
(lp103
sI73
(lp104
sI74
(lp105
sI75
(lp106
sI76
(lp107
sI77
(lp108
sI78
(lp109
sI79
(lp110
sI80
(lp111
sI81
(lp112
sI82
(lp113
sI83
(lp114
sI84
(lp115
V0#0_8
p116
aV0#0_6
p117
aV0#0_7
p118
aV0#0_5
p119
aV0#0_3
p120
aV3#3_22
p121
aV4#4_30
p122
aV4#4_31
p123
aV4#4_35
p124
aV6#6_42
p125
asI85
(lp126
sI86
(lp127
sI87
(lp128
sI88
(lp129
sI89
(lp130
sI90
(lp131
sI91
(lp132
sI92
(lp133
sI93
(lp134
sI94
(lp135
V9#9_62
p136
aV9#9_63
p137
asI95
(lp138
V5#5_36
p139
asI96
(lp140
sI97
(lp141
sI98
(lp142
sI99
(lp143
sI100
(lp144
sI101
(lp145
sI102
(lp146
sI103
(lp147
sI104
(lp148
sI105
(lp149
V9#9_57
p150
aV9#9_60
p151
aV8#8_54
p152
asI106
(lp153
sI107
(lp154
sI108
(lp155
V3#3_25
p156
aV3#3_23
p157
aV2#2_19
p158
aV4#4_32
p159
aV4#4_33
p160
aV6#6_44
p161
aV6#6_43
p162
asI109
(lp163
V2#2_19
p164
asI110
(lp165
V2#2_19
p166
asI111
(lp167
sI112
(lp168
sI113
(lp169
sI114
(lp170
sI115
(lp171
sI116
(lp172
sI117
(lp173
sI118
(lp174
sI119
(lp175
sI120
(lp176
sI121
(lp177
sI122
(lp178
sI123
(lp179
sI124
(lp180
sI125
(lp181
sI126
(lp182
sI127
(lp183
sI128
(lp184
sI129
(lp185
sI130
(lp186
sI131
(lp187
sI132
(lp188
sI133
(lp189
sI134
(lp190
sI135
(lp191
sI136
(lp192
sI137
(lp193
sI138
(lp194
sI139
(lp195
sI140
(lp196
sI141
(lp197
sI142
(lp198
sI143
(lp199
sI144
(lp200
sI145
(lp201
sI146
(lp202
sI147
(lp203
sI148
(lp204
sI149
(lp205
sI150
(lp206
sI151
(lp207
sI152
(lp208
sI153
(lp209
V1#1_18
p210
aV1#1_13
p211
aV1#1_12
p212
aV1#1_11
p213
aV1#1_10
p214
aV1#1_17
p215
aV1#1_16
p216
aV1#1_15
p217
aV1#1_14
p218
aV1#1_9
p219
aV0#0_8
p220
aV0#0_6
p221
aV0#0_7
p222
aV0#0_4
p223
aV0#0_5
p224
aV0#0_2
p225
aV0#0_3
p226
aV0#0_0
p227
aV0#0_1
p228
aV3#3_24
p229
aV3#3_25
p230
aV3#3_26
p231
aV3#3_22
p232
aV3#3_23
p233
aV2#2_19
p234
aV2#2_21
p235
aV2#2_20
p236
aV5#5_39
p237
aV5#5_38
p238
aV5#5_40
p239
aV5#5_41
p240
aV5#5_37
p241
aV5#5_36
p242
aV4#4_27
p243
aV4#4_29
p244
aV4#4_28
p245
aV4#4_32
p246
aV4#4_33
p247
aV4#4_30
p248
aV4#4_31
p249
aV4#4_34
p250
aV4#4_35
p251
aV7#7_51
p252
aV7#7_50
p253
aV6#6_49
p254
aV6#6_48
p255
aV6#6_45
p256
aV6#6_44
p257
aV6#6_47
p258
aV6#6_46
p259
aV6#6_43
p260
aV6#6_42
p261
aV9#9_59
p262
aV9#9_58
p263
aV9#9_57
p264
aV9#9_56
p265
aV9#9_55
p266
aV9#9_61
p267
aV9#9_62
p268
aV9#9_63
p269
aV9#9_60
p270
aV8#8_54
p271
aV8#8_52
p272
aV8#8_53
p273
asI154
(lp274
sI155
(lp275
sI156
(lp276
sI157
(lp277
sI158
(lp278
sI159
(lp279
sI160
(lp280
sI161
(lp281
sI162
(lp282
sI163
(lp283
sI164
(lp284
sI165
(lp285
sI166
(lp286
sI167
(lp287
sI168
(lp288
sI169
(lp289
V4#None
p290
aV0#None
p291
asI170
(lp292
sI171
(lp293
sI172
(lp294
V2#None
p295
asI173
(lp296
sI174
(lp297
sI175
(lp298
V2#2_21
p299
aV2#2_20
p300
aV4#4_34
p301
aV6#6_49
p302
aV6#6_48
p303
aV6#6_45
p304
aV6#6_47
p305
aV6#6_46
p306
asI176
(lp307
V2#2_21
p308
aV2#2_20
p309
asI177
(lp310
sI178
(lp311
V2#None
p312
asI179
(lp313
sI180
(lp314
sI181
(lp315
sI182
(lp316
sI183
(lp317
sI184
(lp318
sI185
(lp319
sI186
(lp320
sI187
(lp321
V5#None
p322
asI188
(lp323
sI189
(lp324
sI190
(lp325
sI191
(lp326
sI192
(lp327
sI193
(lp328
V0#0_0
p329
aV4#4_27
p330
asI194
(lp331
V6#None
p332
aV3#None
p333
aV0#0_4
p334
aV0#0_2
p335
aV0#0_1
p336
aV4#4_29
p337
aV4#4_28
p338
asI195
(lp339
V2#None
p340
asI196
(lp341
V1#None
p342
aV3#None
p343
asI197
(lp344
V9#None
p345
asI198
(lp346
V7#None
p347
asI199
(lp348
V8#None
p349
aV1#1_9
p350
aV3#3_22
p351
aV7#7_50
p352
as.