(dp0
I0
(lp1
sI1
(lp2
sI2
(lp3
sI3
(lp4
sI4
(lp5
sI5
(lp6
sI6
(lp7
sI7
(lp8
sI8
(lp9
sI9
(lp10
sI10
(lp11
sI11
(lp12
sI12
(lp13
sI13
(lp14
sI14
(lp15
sI15
(lp16
sI16
(lp17
sI17
(lp18
sI18
(lp19
sI19
(lp20
sI20
(lp21
sI21
(lp22
sI22
(lp23
sI23
(lp24
sI24
(lp25
sI25
(lp26
sI26
(lp27
sI27
(lp28
sI28
(lp29
sI29
(lp30
sI30
(lp31
sI31
(lp32
sI32
(lp33
sI33
(lp34
sI34
(lp35
sI35
(lp36
sI36
(lp37
sI37
(lp38
sI38
(lp39
sI39
(lp40
sI40
(lp41
sI41
(lp42
sI42
(lp43
sI43
(lp44
sI44
(lp45
sI45
(lp46
sI46
(lp47
sI47
(lp48
sI48
(lp49
sI49
(lp50
sI50
(lp51
sI51
(lp52
sI52
(lp53
sI53
(lp54
sI54
(lp55
sI55
(lp56
sI56
(lp57
sI57
(lp58
sI58
(lp59
sI59
(lp60
sI60
(lp61
sI61
(lp62
sI62
(lp63
sI63
(lp64
sI64
(lp65
sI65
(lp66
sI66
(lp67
sI67
(lp68
sI68
(lp69
sI69
(lp70
sI70
(lp71
sI71
(lp72
sI72
(lp73
sI73
(lp74
sI74
(lp75
sI75
(lp76
sI76
(lp77
sI77
(lp78
sI78
(lp79
sI79
(lp80
sI80
(lp81
sI81
(lp82
sI82
(lp83
sI83
(lp84
sI84
(lp85
sI85
(lp86
sI86
(lp87
sI87
(lp88
sI88
(lp89
sI89
(lp90
sI90
(lp91
sI91
(lp92
sI92
(lp93
sI93
(lp94
sI94
(lp95
sI95
(lp96
sI96
(lp97
sI97
(lp98
sI98
(lp99
sI99
(lp100
sI100
(lp101
sI101
(lp102
V8#8_53
p103
asI102
(lp104
V3#3_23
p105
asI103
(lp106
V4#4_32
p107
asI104
(lp108
V9#9_58
p109
asI105
(lp110
V4#4_28
p111
asI106
(lp112
V3#3_25
p113
asI107
(lp114
V2#2_19
p115
asI108
(lp116
V5#5_41
p117
asI109
(lp118
V0#0_1
p119
asI110
(lp120
V3#3_22
p121
asI111
(lp122
V4#4_29
p123
asI112
(lp124
V9#9_56
p125
asI113
(lp126
V4#4_27
p127
asI114
(lp128
V1#1_14
p129
asI115
(lp130
V8#8_54
p131
asI116
(lp132
V5#5_37
p133
asI117
(lp134
V5#5_40
p135
asI118
(lp136
V7#7_51
p137
asI119
(lp138
V2#2_21
p139
asI120
(lp140
sI121
(lp141
V0#0_8
p142
asI122
(lp143
V3#3_24
p144
asI123
(lp145
V0#0_4
p146
asI124
(lp147
sI125
(lp148
sI126
(lp149
V5#5_38
p150
asI127
(lp151
V6#6_47
p152
asI128
(lp153
sI129
(lp154
V0#0_7
p155
asI130
(lp156
V9#9_59
p157
asI131
(lp158
sI132
(lp159
V9#9_57
p160
asI133
(lp161
sI134
(lp162
sI135
(lp163
V6#6_42
p164
asI136
(lp165
V9#9_60
p166
asI137
(lp167
V9#9_62
p168
asI138
(lp169
V3#3_25
p170
asI139
(lp171
V6#6_45
p172
asI140
(lp173
sI141
(lp174
V0#0_6
p175
asI142
(lp176
sI143
(lp177
V6#6_44
p178
asI144
(lp179
V9#9_63
p180
asI145
(lp181
sI146
(lp182
V3#3_26
p183
asI147
(lp184
V6#6_49
p185
asI148
(lp186
V1#1_17
p187
asI149
(lp188
V6#6_46
p189
asI150
(lp190
sI151
(lp191
V0#0_2
p192
asI152
(lp193
V1#1_9
p194
asI153
(lp195
V1#1_18
p196
aV1#1_13
p197
aV1#1_12
p198
aV1#1_11
p199
aV1#1_10
p200
aV1#1_17
p201
aV1#1_16
p202
aV1#1_15
p203
aV1#1_14
p204
aV1#1_9
p205
aV0#0_8
p206
aV0#0_6
p207
aV0#0_7
p208
aV0#0_4
p209
aV0#0_5
p210
aV0#0_2
p211
aV0#0_3
p212
aV0#0_0
p213
aV0#0_1
p214
aV3#3_24
p215
aV3#3_25
p216
aV3#3_26
p217
aV3#3_22
p218
aV3#3_23
p219
aV2#2_19
p220
aV2#2_21
p221
aV2#2_20
p222
aV5#5_39
p223
aV5#5_38
p224
aV5#5_40
p225
aV5#5_41
p226
aV5#5_37
p227
aV5#5_36
p228
aV4#4_27
p229
aV4#4_29
p230
aV4#4_28
p231
aV4#4_32
p232
aV4#4_33
p233
aV4#4_30
p234
aV4#4_31
p235
aV4#4_34
p236
aV4#4_35
p237
aV7#7_51
p238
aV7#7_50
p239
aV6#6_49
p240
aV6#6_48
p241
aV6#6_45
p242
aV6#6_44
p243
aV6#6_47
p244
aV6#6_46
p245
aV6#6_43
p246
aV6#6_42
p247
aV9#9_59
p248
aV9#9_58
p249
aV9#9_57
p250
aV9#9_56
p251
aV9#9_55
p252
aV9#9_61
p253
aV9#9_62
p254
aV9#9_63
p255
aV9#9_60
p256
aV8#8_54
p257
aV8#8_52
p258
aV8#8_53
p259
asI154
(lp260
sI155
(lp261
sI156
(lp262
sI157
(lp263
V4#4_34
p264
asI158
(lp265
sI159
(lp266
sI160
(lp267
V1#1_16
p268
asI161
(lp269
V2#2_20
p270
asI162
(lp271
V1#1_10
p272
asI163
(lp273
V4#4_35
p274
asI164
(lp275
V3#3_23
p276
asI165
(lp277
V3#3_24
p278
asI166
(lp279
sI167
(lp280
V4#4_30
p281
asI168
(lp282
V4#4_33
p283
asI169
(lp284
V4#None
p285
aV0#None
p286
asI170
(lp287
V5#5_39
p288
asI171
(lp289
V2#2_20
p290
asI172
(lp291
V2#None
p292
asI173
(lp293
V2#2_19
p294
asI174
(lp295
V9#9_55
p296
asI175
(lp297
V9#9_61
p298
asI176
(lp299
sI177
(lp300
V6#6_48
p301
asI178
(lp302
V2#None
p303
asI179
(lp304
V2#2_19
p305
asI180
(lp306
V1#1_11
p307
asI181
(lp308
V2#2_21
p309
asI182
(lp310
sI183
(lp311
sI184
(lp312
sI185
(lp313
V6#6_43
p314
asI186
(lp315
V3#3_22
p316
asI187
(lp317
V5#None
p318
asI188
(lp319
V5#5_36
p320
asI189
(lp321
V0#0_5
p322
asI190
(lp323
V7#7_50
p324
asI191
(lp325
V0#0_3
p326
asI192
(lp327
V3#3_26
p328
asI193
(lp329
V0#0_0
p330
asI194
(lp331
V6#None
p332
aV3#None
p333
asI195
(lp334
V2#None
p335
asI196
(lp336
V3#None
p337
aV1#None
p338
asI197
(lp339
V9#None
p340
asI198
(lp341
V7#None
p342
asI199
(lp343
V8#None
p344
as.