(dp0
I0
(lp1
sI1
(lp2
sI2
(lp3
sI3
(lp4
sI4
(lp5
sI5
(lp6
sI6
(lp7
sI7
(lp8
sI8
(lp9
sI9
(lp10
sI10
(lp11
sI11
(lp12
sI12
(lp13
sI13
(lp14
sI14
(lp15
sI15
(lp16
sI16
(lp17
sI17
(lp18
sI18
(lp19
sI19
(lp20
sI20
(lp21
sI21
(lp22
sI22
(lp23
sI23
(lp24
sI24
(lp25
sI25
(lp26
sI26
(lp27
sI27
(lp28
sI28
(lp29
sI29
(lp30
sI30
(lp31
sI31
(lp32
sI32
(lp33
sI33
(lp34
sI34
(lp35
sI35
(lp36
sI36
(lp37
sI37
(lp38
sI38
(lp39
sI39
(lp40
sI40
(lp41
sI41
(lp42
sI42
(lp43
sI43
(lp44
sI44
(lp45
sI45
(lp46
sI46
(lp47
sI47
(lp48
sI48
(lp49
sI49
(lp50
sI50
(lp51
sI51
(lp52
sI52
(lp53
sI53
(lp54
sI54
(lp55
sI55
(lp56
sI56
(lp57
sI57
(lp58
sI58
(lp59
sI59
(lp60
sI60
(lp61
sI61
(lp62
sI62
(lp63
sI63
(lp64
sI64
(lp65
sI65
(lp66
sI66
(lp67
sI67
(lp68
sI68
(lp69
sI69
(lp70
sI70
(lp71
sI71
(lp72
sI72
(lp73
sI73
(lp74
sI74
(lp75
sI75
(lp76
sI76
(lp77
sI77
(lp78
sI78
(lp79
sI79
(lp80
sI80
(lp81
sI81
(lp82
sI82
(lp83
sI83
(lp84
sI84
(lp85
sI85
(lp86
sI86
(lp87
sI87
(lp88
sI88
(lp89
sI89
(lp90
sI90
(lp91
sI91
(lp92
sI92
(lp93
sI93
(lp94
sI94
(lp95
sI95
(lp96
sI96
(lp97
sI97
(lp98
sI98
(lp99
sI99
(lp100
sI100
(lp101
V4#4_28
p102
asI101
(lp103
V9#9_58
p104
asI102
(lp105
V0#0_8
p106
asI103
(lp107
V9#9_57
p108
asI104
(lp109
V8#8_54
p110
asI105
(lp111
V3#3_23
p112
asI106
(lp113
V2#2_19
p114
asI107
(lp115
V5#5_37
p116
asI108
(lp117
V2#2_21
p118
asI109
(lp119
V3#3_22
p120
asI110
(lp121
V8#8_52
p122
asI111
(lp123
V3#3_24
p124
asI112
(lp125
V4#4_27
p126
asI113
(lp127
V5#5_38
p128
asI114
(lp129
sI115
(lp130
V3#3_24
p131
asI116
(lp132
V4#4_35
p133
asI117
(lp134
V3#3_25
p135
asI118
(lp136
V4#4_29
p137
asI119
(lp138
sI120
(lp139
V2#2_20
p140
asI121
(lp141
V5#5_41
p142
asI122
(lp143
V2#2_20
p144
asI123
(lp145
V5#5_36
p146
asI124
(lp147
sI125
(lp148
V3#3_26
p149
asI126
(lp150
V0#0_5
p151
asI127
(lp152
V3#3_23
p153
asI128
(lp154
V2#2_20
p155
asI129
(lp156
sI130
(lp157
V6#6_49
p158
asI131
(lp159
V1#1_12
p160
asI132
(lp161
sI133
(lp162
V1#1_9
p163
asI134
(lp164
V6#6_43
p165
asI135
(lp166
V9#9_60
p167
asI136
(lp168
sI137
(lp169
V9#9_56
p170
asI138
(lp171
V4#4_32
p172
asI139
(lp173
V5#5_40
p174
asI140
(lp175
V2#2_21
p176
asI141
(lp177
V9#9_59
p178
asI142
(lp179
V6#6_45
p180
asI143
(lp181
sI144
(lp182
V4#4_34
p183
asI145
(lp184
V1#1_17
p185
asI146
(lp186
V4#4_31
p187
asI147
(lp188
V1#1_16
p189
asI148
(lp190
V6#6_48
p191
asI149
(lp192
sI150
(lp193
V6#6_47
p194
asI151
(lp195
V9#9_61
p196
asI152
(lp197
sI153
(lp198
V1#1_18
p199
aV1#1_13
p200
aV1#1_12
p201
aV1#1_11
p202
aV1#1_10
p203
aV1#1_17
p204
aV1#1_16
p205
aV1#1_15
p206
aV1#1_14
p207
aV1#1_9
p208
aV0#0_8
p209
aV0#0_6
p210
aV0#0_7
p211
aV0#0_4
p212
aV0#0_5
p213
aV0#0_2
p214
aV0#0_3
p215
aV0#0_0
p216
aV0#0_1
p217
aV3#3_24
p218
aV3#3_25
p219
aV3#3_26
p220
aV3#3_22
p221
aV3#3_23
p222
aV2#2_19
p223
aV2#2_21
p224
aV2#2_20
p225
aV5#5_39
p226
aV5#5_38
p227
aV5#5_40
p228
aV5#5_41
p229
aV5#5_37
p230
aV5#5_36
p231
aV4#4_27
p232
aV4#4_29
p233
aV4#4_28
p234
aV4#4_32
p235
aV4#4_33
p236
aV4#4_30
p237
aV4#4_31
p238
aV4#4_34
p239
aV4#4_35
p240
aV7#7_51
p241
aV7#7_50
p242
aV6#6_49
p243
aV6#6_48
p244
aV6#6_45
p245
aV6#6_44
p246
aV6#6_47
p247
aV6#6_46
p248
aV6#6_43
p249
aV6#6_42
p250
aV9#9_59
p251
aV9#9_58
p252
aV9#9_57
p253
aV9#9_56
p254
aV9#9_55
p255
aV9#9_61
p256
aV9#9_62
p257
aV9#9_63
p258
aV9#9_60
p259
aV8#8_54
p260
aV8#8_52
p261
aV8#8_53
p262
asI154
(lp263
V0#0_2
p264
asI155
(lp265
V9#9_62
p266
asI156
(lp267
V6#6_44
p268
asI157
(lp269
sI158
(lp270
sI159
(lp271
V3#3_26
p272
asI160
(lp273
V8#8_53
p274
asI161
(lp275
V7#7_50
p276
asI162
(lp277
V6#6_46
p278
asI163
(lp279
sI164
(lp280
sI165
(lp281
V1#1_14
p282
asI166
(lp283
V0#0_7
p284
asI167
(lp285
V1#1_18
p286
asI168
(lp287
V2#2_19
p288
asI169
(lp289
V4#None
p290
aV0#None
p291
asI170
(lp292
V0#0_1
p293
asI171
(lp294
V1#1_15
p295
asI172
(lp296
V2#None
p297
asI173
(lp298
V9#9_55
p299
asI174
(lp300
V0#0_6
p301
asI175
(lp302
V1#1_11
p303
asI176
(lp304
V4#4_33
p305
asI177
(lp306
V9#9_63
p307
asI178
(lp308
V2#None
p309
asI179
(lp310
V7#7_51
p311
asI180
(lp312
V0#0_4
p313
asI181
(lp314
V1#1_13
p315
asI182
(lp316
V2#2_19
p317
asI183
(lp318
V5#5_39
p319
asI184
(lp320
V0#0_3
p321
asI185
(lp322
V3#3_22
p323
asI186
(lp324
V4#4_30
p325
asI187
(lp326
V5#None
p327
asI188
(lp328
V2#2_21
p329
asI189
(lp330
V1#1_10
p331
asI190
(lp332
V6#6_42
p333
asI191
(lp334
V3#3_25
p335
asI192
(lp336
V0#0_0
p337
asI193
(lp338
sI194
(lp339
V6#None
p340
aV3#None
p341
asI195
(lp342
V2#None
p343
asI196
(lp344
V3#None
p345
aV1#None
p346
asI197
(lp347
V9#None
p348
asI198
(lp349
V7#None
p350
asI199
(lp351
V8#None
p352
as.