(dp0
I0
(lp1
sI1
(lp2
sI2
(lp3
sI3
(lp4
sI4
(lp5
sI5
(lp6
sI6
(lp7
sI7
(lp8
sI8
(lp9
sI9
(lp10
sI10
(lp11
sI11
(lp12
sI12
(lp13
sI13
(lp14
sI14
(lp15
sI15
(lp16
sI16
(lp17
sI17
(lp18
sI18
(lp19
sI19
(lp20
sI20
(lp21
sI21
(lp22
sI22
(lp23
sI23
(lp24
sI24
(lp25
sI25
(lp26
sI26
(lp27
sI27
(lp28
sI28
(lp29
sI29
(lp30
sI30
(lp31
sI31
(lp32
sI32
(lp33
sI33
(lp34
sI34
(lp35
sI35
(lp36
sI36
(lp37
sI37
(lp38
sI38
(lp39
sI39
(lp40
sI40
(lp41
sI41
(lp42
sI42
(lp43
sI43
(lp44
sI44
(lp45
sI45
(lp46
sI46
(lp47
sI47
(lp48
sI48
(lp49
sI49
(lp50
sI50
(lp51
sI51
(lp52
sI52
(lp53
sI53
(lp54
sI54
(lp55
sI55
(lp56
sI56
(lp57
sI57
(lp58
sI58
(lp59
sI59
(lp60
sI60
(lp61
sI61
(lp62
sI62
(lp63
sI63
(lp64
sI64
(lp65
sI65
(lp66
sI66
(lp67
sI67
(lp68
sI68
(lp69
sI69
(lp70
sI70
(lp71
sI71
(lp72
sI72
(lp73
sI73
(lp74
sI74
(lp75
sI75
(lp76
sI76
(lp77
sI77
(lp78
sI78
(lp79
sI79
(lp80
sI80
(lp81
sI81
(lp82
sI82
(lp83
sI83
(lp84
sI84
(lp85
sI85
(lp86
sI86
(lp87
sI87
(lp88
sI88
(lp89
sI89
(lp90
sI90
(lp91
sI91
(lp92
sI92
(lp93
sI93
(lp94
sI94
(lp95
sI95
(lp96
sI96
(lp97
sI97
(lp98
sI98
(lp99
sI99
(lp100
sI100
(lp101
sI101
(lp102
V8#8_53
p103
asI102
(lp104
V3#3_23
p105
asI103
(lp106
V0#0_1
p107
asI104
(lp108
V9#9_58
p109
asI105
(lp110
V4#4_28
p111
asI106
(lp112
V3#3_25
p113
asI107
(lp114
V2#2_19
p115
asI108
(lp116
V1#1_15
p117
asI109
(lp118
V4#4_29
p119
asI110
(lp120
V3#3_22
p121
asI111
(lp122
V8#8_52
p123
asI112
(lp124
V9#9_56
p125
asI113
(lp126
V4#4_27
p127
asI114
(lp128
V7#7_51
p129
asI115
(lp130
V8#8_54
p131
asI116
(lp132
sI117
(lp133
V6#6_44
p134
asI118
(lp135
V5#5_41
p136
asI119
(lp137
V2#2_21
p138
asI120
(lp139
sI121
(lp140
V4#4_35
p141
asI122
(lp142
V1#1_18
p143
asI123
(lp144
V0#0_6
p145
asI124
(lp146
V3#3_26
p147
asI125
(lp148
sI126
(lp149
V5#5_39
p150
asI127
(lp151
V6#6_45
p152
asI128
(lp153
V5#5_37
p154
asI129
(lp155
V4#4_32
p156
asI130
(lp157
V1#1_10
p158
asI131
(lp159
sI132
(lp160
V9#9_57
p161
asI133
(lp162
sI134
(lp163
V5#5_38
p164
asI135
(lp165
V6#6_48
p166
asI136
(lp167
V9#9_60
p168
asI137
(lp169
sI138
(lp170
V3#3_25
p171
asI139
(lp172
V4#4_33
p173
asI140
(lp174
V9#9_63
p175
asI141
(lp176
V0#0_7
p177
asI142
(lp178
V1#1_17
p179
asI143
(lp180
V0#0_4
p181
asI144
(lp182
V9#9_62
p183
asI145
(lp184
V0#0_3
p185
asI146
(lp186
V3#3_24
p187
asI147
(lp188
V6#6_49
p189
asI148
(lp190
V1#1_11
p191
asI149
(lp192
sI150
(lp193
V1#1_12
p194
asI151
(lp195
V0#0_5
p196
asI152
(lp197
V1#1_9
p198
asI153
(lp199
V1#1_18
p200
aV1#1_13
p201
aV1#1_12
p202
aV1#1_11
p203
aV1#1_10
p204
aV1#1_17
p205
aV1#1_16
p206
aV1#1_15
p207
aV1#1_14
p208
aV1#1_9
p209
aV0#0_8
p210
aV0#0_6
p211
aV0#0_7
p212
aV0#0_4
p213
aV0#0_5
p214
aV0#0_2
p215
aV0#0_3
p216
aV0#0_0
p217
aV0#0_1
p218
aV3#3_24
p219
aV3#3_25
p220
aV3#3_26
p221
aV3#3_22
p222
aV3#3_23
p223
aV2#2_19
p224
aV2#2_21
p225
aV2#2_20
p226
aV5#5_39
p227
aV5#5_38
p228
aV5#5_40
p229
aV5#5_41
p230
aV5#5_37
p231
aV5#5_36
p232
aV4#4_27
p233
aV4#4_29
p234
aV4#4_28
p235
aV4#4_32
p236
aV4#4_33
p237
aV4#4_30
p238
aV4#4_31
p239
aV4#4_34
p240
aV4#4_35
p241
aV7#7_51
p242
aV7#7_50
p243
aV6#6_49
p244
aV6#6_48
p245
aV6#6_45
p246
aV6#6_44
p247
aV6#6_47
p248
aV6#6_46
p249
aV6#6_43
p250
aV6#6_42
p251
aV9#9_59
p252
aV9#9_58
p253
aV9#9_57
p254
aV9#9_56
p255
aV9#9_55
p256
aV9#9_61
p257
aV9#9_62
p258
aV9#9_63
p259
aV9#9_60
p260
aV8#8_54
p261
aV8#8_52
p262
aV8#8_53
p263
asI154
(lp264
sI155
(lp265
sI156
(lp266
sI157
(lp267
V4#4_34
p268
asI158
(lp269
V1#1_16
p270
asI159
(lp271
sI160
(lp272
V1#1_13
p273
asI161
(lp274
V2#2_20
p275
asI162
(lp276
V9#9_59
p277
asI163
(lp278
V2#2_20
p279
asI164
(lp280
V3#3_23
p281
asI165
(lp282
sI166
(lp283
V3#3_26
p284
asI167
(lp285
V4#4_30
p286
asI168
(lp287
V1#1_14
p288
asI169
(lp289
V4#None
p290
aV0#None
p291
asI170
(lp292
sI171
(lp293
V2#2_20
p294
asI172
(lp295
V2#None
p296
asI173
(lp297
V2#2_19
p298
asI174
(lp299
V9#9_55
p300
asI175
(lp301
V0#0_8
p302
asI176
(lp303
V7#7_50
p304
asI177
(lp305
V0#0_2
p306
asI178
(lp307
V2#None
p308
asI179
(lp309
V2#2_19
p310
asI180
(lp311
V9#9_61
p312
asI181
(lp313
V2#2_21
p314
asI182
(lp315
sI183
(lp316
V6#6_46
p317
asI184
(lp318
sI185
(lp319
V6#6_43
p320
asI186
(lp321
V3#3_22
p322
asI187
(lp323
V5#None
p324
asI188
(lp325
V5#5_36
p326
asI189
(lp327
V4#4_31
p328
asI190
(lp329
V5#5_40
p330
asI191
(lp331
V6#6_42
p332
asI192
(lp333
V3#3_24
p334
asI193
(lp335
V0#0_0
p336
asI194
(lp337
V6#None
p338
aV3#None
p339
asI195
(lp340
V2#None
p341
asI196
(lp342
V3#None
p343
aV1#None
p344
asI197
(lp345
V9#None
p346
asI198
(lp347
V7#None
p348
asI199
(lp349
V8#None
p350
as.