(dp0
I0
(lp1
sI1
(lp2
sI2
(lp3
sI3
(lp4
sI4
(lp5
sI5
(lp6
sI6
(lp7
sI7
(lp8
sI8
(lp9
sI9
(lp10
sI10
(lp11
sI11
(lp12
sI12
(lp13
sI13
(lp14
sI14
(lp15
sI15
(lp16
sI16
(lp17
sI17
(lp18
sI18
(lp19
sI19
(lp20
sI20
(lp21
sI21
(lp22
sI22
(lp23
sI23
(lp24
sI24
(lp25
sI25
(lp26
sI26
(lp27
sI27
(lp28
sI28
(lp29
sI29
(lp30
sI30
(lp31
sI31
(lp32
sI32
(lp33
sI33
(lp34
sI34
(lp35
sI35
(lp36
sI36
(lp37
sI37
(lp38
sI38
(lp39
sI39
(lp40
sI40
(lp41
sI41
(lp42
sI42
(lp43
sI43
(lp44
sI44
(lp45
sI45
(lp46
sI46
(lp47
sI47
(lp48
sI48
(lp49
sI49
(lp50
sI50
(lp51
sI51
(lp52
sI52
(lp53
sI53
(lp54
sI54
(lp55
sI55
(lp56
sI56
(lp57
sI57
(lp58
sI58
(lp59
sI59
(lp60
sI60
(lp61
sI61
(lp62
sI62
(lp63
sI63
(lp64
sI64
(lp65
sI65
(lp66
sI66
(lp67
sI67
(lp68
sI68
(lp69
sI69
(lp70
sI70
(lp71
sI71
(lp72
sI72
(lp73
sI73
(lp74
sI74
(lp75
sI75
(lp76
sI76
(lp77
sI77
(lp78
sI78
(lp79
sI79
(lp80
sI80
(lp81
sI81
(lp82
sI82
(lp83
sI83
(lp84
sI84
(lp85
sI85
(lp86
sI86
(lp87
sI87
(lp88
sI88
(lp89
sI89
(lp90
sI90
(lp91
sI91
(lp92
sI92
(lp93
sI93
(lp94
sI94
(lp95
sI95
(lp96
sI96
(lp97
sI97
(lp98
sI98
(lp99
sI99
(lp100
sI100
(lp101
V4#4_28
p102
asI101
(lp103
V9#9_58
p104
asI102
(lp105
V0#0_8
p106
asI103
(lp107
V9#9_57
p108
asI104
(lp109
V8#8_54
p110
asI105
(lp111
V5#5_36
p112
asI106
(lp113
V2#2_19
p114
asI107
(lp115
V9#9_63
p116
asI108
(lp117
V0#0_3
p118
asI109
(lp119
V3#3_22
p120
asI110
(lp121
V8#8_52
p122
asI111
(lp123
V5#5_41
p124
asI112
(lp125
V4#4_27
p126
asI113
(lp127
V1#1_11
p128
asI114
(lp129
sI115
(lp130
V3#3_24
p131
asI116
(lp132
V4#4_35
p133
asI117
(lp134
V3#3_25
p135
asI118
(lp136
V4#4_29
p137
asI119
(lp138
sI120
(lp139
V2#2_20
p140
asI121
(lp141
V1#1_15
p142
asI122
(lp143
V0#0_6
p144
asI123
(lp145
sI124
(lp146
sI125
(lp147
V3#3_26
p148
asI126
(lp149
V0#0_7
p150
asI127
(lp151
V3#3_23
p152
asI128
(lp153
V2#2_20
p154
asI129
(lp155
V5#5_38
p156
asI130
(lp157
sI131
(lp158
V3#3_26
p159
asI132
(lp160
sI133
(lp161
V3#3_23
p162
asI134
(lp163
V2#2_21
p164
asI135
(lp165
V9#9_60
p166
asI136
(lp167
V6#6_46
p168
asI137
(lp169
V9#9_56
p170
asI138
(lp171
V4#4_32
p172
asI139
(lp173
V7#7_51
p174
asI140
(lp175
V2#2_20
p176
asI141
(lp177
V9#9_59
p178
asI142
(lp179
sI143
(lp180
sI144
(lp181
V4#4_34
p182
asI145
(lp183
V1#1_14
p184
asI146
(lp185
V4#4_31
p186
asI147
(lp187
V1#1_18
p188
asI148
(lp189
V6#6_44
p190
asI149
(lp191
sI150
(lp192
V6#6_48
p193
asI151
(lp194
V9#9_61
p195
asI152
(lp196
V6#6_47
p197
asI153
(lp198
V1#1_18
p199
aV1#1_13
p200
aV1#1_12
p201
aV1#1_11
p202
aV1#1_10
p203
aV1#1_17
p204
aV1#1_16
p205
aV1#1_15
p206
aV1#1_14
p207
aV1#1_9
p208
aV0#0_8
p209
aV0#0_6
p210
aV0#0_7
p211
aV0#0_4
p212
aV0#0_5
p213
aV0#0_2
p214
aV0#0_3
p215
aV0#0_0
p216
aV0#0_1
p217
aV3#3_24
p218
aV3#3_25
p219
aV3#3_26
p220
aV3#3_22
p221
aV3#3_23
p222
aV2#2_19
p223
aV2#2_21
p224
aV2#2_20
p225
aV5#5_39
p226
aV5#5_38
p227
aV5#5_40
p228
aV5#5_41
p229
aV5#5_37
p230
aV5#5_36
p231
aV4#4_27
p232
aV4#4_29
p233
aV4#4_28
p234
aV4#4_32
p235
aV4#4_33
p236
aV4#4_30
p237
aV4#4_31
p238
aV4#4_34
p239
aV4#4_35
p240
aV7#7_51
p241
aV7#7_50
p242
aV6#6_49
p243
aV6#6_48
p244
aV6#6_45
p245
aV6#6_44
p246
aV6#6_47
p247
aV6#6_46
p248
aV6#6_43
p249
aV6#6_42
p250
aV9#9_59
p251
aV9#9_58
p252
aV9#9_57
p253
aV9#9_56
p254
aV9#9_55
p255
aV9#9_61
p256
aV9#9_62
p257
aV9#9_63
p258
aV9#9_60
p259
aV8#8_54
p260
aV8#8_52
p261
aV8#8_53
p262
asI154
(lp263
V0#0_2
p264
asI155
(lp265
sI156
(lp266
V6#6_43
p267
asI157
(lp268
V1#1_10
p269
asI158
(lp270
sI159
(lp271
V5#5_37
p272
asI160
(lp273
V8#8_53
p274
asI161
(lp275
V5#5_40
p276
asI162
(lp277
V6#6_45
p278
asI163
(lp279
V5#5_39
p280
asI164
(lp281
sI165
(lp282
V7#7_50
p283
asI166
(lp284
V6#6_49
p285
asI167
(lp286
V1#1_12
p287
asI168
(lp288
V2#2_19
p289
asI169
(lp290
V4#None
p291
aV0#None
p292
asI170
(lp293
V0#0_1
p294
asI171
(lp295
V9#9_62
p296
asI172
(lp297
V2#None
p298
asI173
(lp299
V9#9_55
p300
asI174
(lp301
V0#0_5
p302
asI175
(lp303
V3#3_24
p304
asI176
(lp305
V4#4_33
p306
asI177
(lp307
V1#1_13
p308
asI178
(lp309
V2#None
p310
asI179
(lp311
V1#1_17
p312
asI180
(lp313
V0#0_4
p314
asI181
(lp315
sI182
(lp316
V2#2_19
p317
asI183
(lp318
sI184
(lp319
V2#2_21
p320
asI185
(lp321
V3#3_22
p322
asI186
(lp323
V4#4_30
p324
asI187
(lp325
V5#None
p326
asI188
(lp327
V6#6_42
p328
asI189
(lp329
V1#1_9
p330
asI190
(lp331
V2#2_21
p332
asI191
(lp333
V3#3_25
p334
asI192
(lp335
V0#0_0
p336
asI193
(lp337
V1#1_16
p338
asI194
(lp339
V6#None
p340
aV3#None
p341
asI195
(lp342
V2#None
p343
asI196
(lp344
V3#None
p345
aV1#None
p346
asI197
(lp347
V9#None
p348
asI198
(lp349
V7#None
p350
asI199
(lp351
V8#None
p352
as.