(dp0
I0
(lp1
V6#6_47
p2
asI1
(lp3
V7#7_51
p4
asI2
(lp5
V2#2_21
p6
asI3
(lp7
sI4
(lp8
sI5
(lp9
sI6
(lp10
sI7
(lp11
V5#5_39
p12
asI8
(lp13
sI9
(lp14
sI10
(lp15
sI11
(lp16
sI12
(lp17
sI13
(lp18
sI14
(lp19
sI15
(lp20
sI16
(lp21
sI17
(lp22
sI18
(lp23
sI19
(lp24
sI20
(lp25
sI21
(lp26
sI22
(lp27
sI23
(lp28
sI24
(lp29
sI25
(lp30
sI26
(lp31
sI27
(lp32
sI28
(lp33
sI29
(lp34
sI30
(lp35
sI31
(lp36
sI32
(lp37
sI33
(lp38
sI34
(lp39
sI35
(lp40
sI36
(lp41
sI37
(lp42
sI38
(lp43
sI39
(lp44
sI40
(lp45
sI41
(lp46
sI42
(lp47
sI43
(lp48
sI44
(lp49
sI45
(lp50
sI46
(lp51
sI47
(lp52
sI48
(lp53
sI49
(lp54
sI50
(lp55
sI51
(lp56
sI52
(lp57
sI53
(lp58
sI54
(lp59
sI55
(lp60
sI56
(lp61
sI57
(lp62
sI58
(lp63
sI59
(lp64
sI60
(lp65
sI61
(lp66
sI62
(lp67
sI63
(lp68
sI64
(lp69
sI65
(lp70
sI66
(lp71
sI67
(lp72
sI68
(lp73
sI69
(lp74
sI70
(lp75
V6#6_45
p76
asI71
(lp77
sI72
(lp78
sI73
(lp79
sI74
(lp80
sI75
(lp81
sI76
(lp82
sI77
(lp83
sI78
(lp84
sI79
(lp85
sI80
(lp86
sI81
(lp87
sI82
(lp88
sI83
(lp89
sI84
(lp90
V0#0_8
p91
asI85
(lp92
sI86
(lp93
sI87
(lp94
sI88
(lp95
sI89
(lp96
sI90
(lp97
V2#2_19
p98
asI91
(lp99
sI92
(lp100
V6#6_48
p101
asI93
(lp102
sI94
(lp103
sI95
(lp104
sI96
(lp105
sI97
(lp106
sI98
(lp107
sI99
(lp108
V5#5_40
p109
asI100
(lp110
V4#4_28
p111
asI101
(lp112
V9#9_58
p113
asI102
(lp114
V3#3_26
p115
asI103
(lp116
V9#9_57
p117
asI104
(lp118
V8#8_54
p119
asI105
(lp120
V5#5_36
p121
asI106
(lp122
V2#2_19
p123
asI107
(lp124
V1#1_14
p125
asI108
(lp126
V2#2_21
p127
asI109
(lp128
V3#3_22
p129
asI110
(lp130
V8#8_53
p131
asI111
(lp132
V1#1_11
p133
asI112
(lp134
V4#4_27
p135
asI113
(lp136
sI114
(lp137
V9#9_63
p138
asI115
(lp139
V3#3_24
p140
asI116
(lp141
V4#4_35
p142
asI117
(lp143
V3#3_25
p144
asI118
(lp145
V4#4_29
p146
asI119
(lp147
sI120
(lp148
V6#6_43
p149
asI121
(lp150
V3#3_24
p151
asI122
(lp152
V2#2_20
p153
asI123
(lp154
sI124
(lp155
sI125
(lp156
V3#3_26
p157
asI126
(lp158
V0#0_5
p159
asI127
(lp160
V3#3_23
p161
asI128
(lp162
V2#2_20
p163
asI129
(lp164
V5#5_38
p165
asI130
(lp166
sI131
(lp167
V1#1_10
p168
asI132
(lp169
sI133
(lp170
V3#3_25
p171
asI134
(lp172
V6#6_49
p173
asI135
(lp174
V9#9_60
p175
asI136
(lp176
sI137
(lp177
V9#9_56
p178
asI138
(lp179
V4#4_32
p180
asI139
(lp181
sI140
(lp182
V2#2_21
p183
asI141
(lp184
V9#9_59
p185
asI142
(lp186
sI143
(lp187
sI144
(lp188
V4#4_34
p189
asI145
(lp190
sI146
(lp191
V4#4_31
p192
asI147
(lp193
V1#1_12
p194
asI148
(lp195
sI149
(lp196
sI150
(lp197
sI151
(lp198
V1#1_9
p199
asI152
(lp200
sI153
(lp201
V1#1_18
p202
aV1#1_13
p203
aV1#1_12
p204
aV1#1_11
p205
aV1#1_10
p206
aV1#1_17
p207
aV1#1_16
p208
aV1#1_15
p209
aV1#1_14
p210
aV1#1_9
p211
aV0#0_8
p212
aV0#0_6
p213
aV0#0_7
p214
aV0#0_4
p215
aV0#0_5
p216
aV0#0_2
p217
aV0#0_3
p218
aV0#0_0
p219
aV0#0_1
p220
aV3#3_24
p221
aV3#3_25
p222
aV3#3_26
p223
aV3#3_22
p224
aV3#3_23
p225
aV2#2_19
p226
aV2#2_21
p227
aV2#2_20
p228
aV5#5_39
p229
aV5#5_38
p230
aV5#5_40
p231
aV5#5_41
p232
aV5#5_37
p233
aV5#5_36
p234
aV4#4_27
p235
aV4#4_29
p236
aV4#4_28
p237
aV4#4_32
p238
aV4#4_33
p239
aV4#4_30
p240
aV4#4_31
p241
aV4#4_34
p242
aV4#4_35
p243
aV7#7_51
p244
aV7#7_50
p245
aV6#6_49
p246
aV6#6_48
p247
aV6#6_45
p248
aV6#6_44
p249
aV6#6_47
p250
aV6#6_46
p251
aV6#6_43
p252
aV6#6_42
p253
aV9#9_59
p254
aV9#9_58
p255
aV9#9_57
p256
aV9#9_56
p257
aV9#9_55
p258
aV9#9_61
p259
aV9#9_62
p260
aV9#9_63
p261
aV9#9_60
p262
aV8#8_54
p263
aV8#8_52
p264
aV8#8_53
p265
asI154
(lp266
V0#0_2
p267
asI155
(lp268
sI156
(lp269
V6#6_46
p270
asI157
(lp271
V1#1_17
p272
asI158
(lp273
sI159
(lp274
V1#1_15
p275
asI160
(lp276
V9#9_61
p277
asI161
(lp278
V5#5_41
p279
asI162
(lp280
sI163
(lp281
V5#5_37
p282
asI164
(lp283
sI165
(lp284
V7#7_50
p285
asI166
(lp286
V0#0_7
p287
asI167
(lp288
sI168
(lp289
V2#2_19
p290
asI169
(lp291
V4#None
p292
aV0#None
p293
asI170
(lp294
V0#0_1
p295
asI171
(lp296
V9#9_62
p297
asI172
(lp298
V2#None
p299
asI173
(lp300
V9#9_55
p301
asI174
(lp302
V0#0_6
p303
asI175
(lp304
V1#1_18
p305
asI176
(lp306
V4#4_33
p307
asI177
(lp308
sI178
(lp309
V2#None
p310
asI179
(lp311
V1#1_16
p312
asI180
(lp313
V0#0_4
p314
asI181
(lp315
sI182
(lp316
V2#2_20
p317
asI183
(lp318
sI184
(lp319
V0#0_3
p320
asI185
(lp321
V3#3_22
p322
asI186
(lp323
V4#4_30
p324
asI187
(lp325
V5#None
p326
asI188
(lp327
V6#6_44
p328
asI189
(lp329
V1#1_13
p330
asI190
(lp331
V6#6_42
p332
asI191
(lp333
V3#3_23
p334
asI192
(lp335
V0#0_0
p336
asI193
(lp337
sI194
(lp338
V6#None
p339
aV3#None
p340
asI195
(lp341
V2#None
p342
asI196
(lp343
V3#None
p344
aV1#None
p345
asI197
(lp346
V9#None
p347
aV8#8_52
p348
asI198
(lp349
V7#None
p350
asI199
(lp351
V8#None
p352
as.