(dp0
(I103
V0_6
p1
tp2
((lp3
I103
aI0
aI4
aI101
aI135
a(lp4
I151
atp5
s(I113
V4_29
p6
tp7
((lp8
I113
aI76
aI3
aI109
a(lp9
I98
atp10
s(I160
V1_14
p11
tp12
((lp13
I160
aI110
aI5
aI108
aI168
a(lp14
I141
atp15
s(I193
V0_4
p16
tp17
((lp18
I193
aI177
aI85
aI15
aI106
aI175
a(lp19
I138
atp20
s(I173
V2_21
p21
tp22
((lp23
I173
aI110
aI4
aI7
aI81
aI119
a(lp24
I127
atp25
s(I174
V9_58
p26
tp27
((lp28
I174
aI108
aI109
aI104
a(lp29
I101
atp30
s(I126
V5_40
p31
tp32
((lp33
I126
aI89
aI5
aI108
aI134
a(lp34
I142
atp35
s(I130
V9_60
p36
tp37
((lp38
I130
aI67
aI4
aI82
aI136
a(lp39
I130
atp40
s(I185
V6_49
p41
tp42
((lp43
I185
aI106
aI109
aI117
a(lp44
I157
atp45
s(I194
V3_22
p46
tp47
((lp48
I194
aI190
aI109
aI0
aI110
a(lp49
I91
atp50
s(I169
V0_0
p51
tp52
((lp53
I169
aI112
aI3
aI6
aI85
aI177
aI193
a(lp54
I90
atp55
s(I196
g46
tp56
((lp57
I196
aI185
aI112
aI100
aI186
a(lp58
I83
atp59
s(I186
V3_25
p60
tp61
((lp62
I186
aI99
aI15
aI106
a(lp63
I104
atp64
s(I126
V5_39
p65
tp66
((lp67
I126
aI89
aI70
aI109
aI190
a(lp68
I143
atp69
s(I152
V1_10
p70
tp71
((lp72
I152
aI111
aI179
aI92
aI180
a(lp73
I110
atp74
s(I103
V0_7
p75
tp76
((lp77
I103
aI91
aI157
a(lp78
I152
atp79
s(I102
V3_24
p80
tp81
((lp82
I102
aI124
a(lp83
I121
atp84
s(I172
V2_19
p85
tp86
((lp87
I172
aI64
aI105
aI112
aI110
aI173
a(lp88
I96
atp89
s(I193
V0_1
p90
tp91
((lp92
I193
aI177
aI85
aI6
aI0
aI103
a(lp93
I136
atp94
s(I188
V5_38
p95
tp96
((lp97
I188
aI109
aI3
aI112
aI116
a(lp98
I119
atp99
s(I125
V6_48
p100
tp101
((lp102
I125
aI104
aI3
aI2
aI107
aI183
a(lp103
I160
atp104
s(I110
g60
tp105
((lp106
I110
aI112
aI80
aI138
a(lp107
I107
atp108
s(I197
V9_55
p109
tp110
((lp111
I197
aI173
aI110
aI5
aI108
aI174
a(lp112
I81
atp113
s(I195
g85
tp114
((lp115
I195
aI175
aI106
aI15
aI7
aI107
a(lp116
I95
atp117
s(I194
V6_42
p118
tp119
((lp120
I194
aI190
aI109
aI106
aI191
a(lp121
I153
atp122
s(I103
V0_5
p123
tp124
((lp125
I103
aI0
aI110
aI141
a(lp126
I150
atp127
s(I108
V1_17
p128
tp129
((lp130
I108
aI109
aI106
aI128
a(lp131
I147
atp132
s(I167
V4_33
p133
tp134
((lp135
I167
aI85
aI177
a(lp136
I139
atp137
s(I185
V6_47
p138
tp139
((lp140
I185
aI106
aI109
aI127
a(lp141
I159
atp142
s(I179
V2_20
p143
tp144
((lp145
I179
aI111
aI105
aI99
aI163
a(lp146
I134
atp147
s(I152
V1_18
p148
tp149
((lp150
I152
aI111
aI1
aI102
aI164
a(lp151
I115
atp152
s(I136
V9_62
p153
tp154
((lp155
I136
aI82
aI86
aI15
aI59
aI158
a(lp156
I145
atp157
s(I111
V8_53
p158
tp159
((lp160
I111
aI5
aI101
a(lp161
I99
atp162
s(I191
V6_44
p163
tp164
((lp165
I191
aI106
aI104
aI125
a(lp166
I156
atp167
s(I176
V7_51
p168
tp169
((lp170
I176
aI99
aI15
aI101
aI114
a(lp171
I154
atp172
s(I174
V9_56
p173
tp174
((lp175
I174
aI111
aI100
aI112
a(lp176
I100
atp177
s(I196
V1_9
p178
tp179
((lp180
I196
aI185
aI112
aI100
aI111
aI152
a(lp181
I89
atp182
s(I148
g80
tp183
((lp184
I148
aI87
aI105
aI7
aI108
aI140
a(lp185
I128
atp186
s(I174
V9_61
p187
tp188
((lp189
I174
aI111
aI162
a(lp190
I103
atp191
s(I105
V4_30
p192
tp193
((lp194
I105
aI93
aI6
aI85
aI167
a(lp195
I125
atp196
s(I152
V1_13
p197
tp198
((lp199
I152
aI111
aI5
aI108
a(lp200
I113
atp201
s(I178
g85
tp202
((lp203
I178
aI107
aI2
aI92
aI179
a(lp204
I109
atp205
s(I193
V0_2
p206
tp207
((lp208
I193
aI177
aI85
aI6
aI3
aI112
aI151
a(lp209
I137
atp210
s(I169
V4_27
p211
tp212
((lp213
I169
aI112
aI3
aI76
aI113
a(lp214
I85
atp215
s(I188
V5_37
p216
tp217
((lp218
I188
aI92
aI5
aI89
aI126
a(lp219
I118
atp220
s(I177
V4_34
p221
tp222
((lp223
I177
aI85
aI6
aI2
aI107
aI139
a(lp224
I144
atp225
s(I112
V9_57
p226
tp227
((lp228
I112
aI4
aI97
aI132
a(lp229
I116
atp230
s(I160
V1_16
p231
tp232
((lp233
I160
aI110
aI61
aI102
aI71
aI142
a(lp234
I140
atp235
s(I179
g21
tp236
((lp237
I179
aI111
aI100
aI74
aI153
a(lp238
I21
atp239
s(I109
V4_31
p240
tp241
((lp242
I109
aI106
aI189
a(lp243
I124
atp244
s(I136
V9_63
p245
tp246
((lp247
I136
aI82
aI83
aI2
aI87
aI156
a(lp248
I146
atp249
s(I185
V6_45
p250
tp251
((lp252
I185
aI112
aI100
aI147
a(lp253
I158
atp254
s(I189
V4_32
p255
tp256
((lp257
I189
aI103
aI65
aI111
aI129
a(lp258
I133
atp259
s(I148
V3_26
p260
tp261
((lp262
I148
aI87
aI2
aI0
aI103
aI144
a(lp263
I129
atp264
s(I107
g143
tp265
((lp266
I107
aI171
a(lp267
I131
atp268
s(I109
V4_35
p269
tp270
((lp271
I109
aI3
aI1
aI102
aI121
a(lp272
I123
atp273
s(I110
V3_23
p274
tp275
((lp276
I110
aI61
aI102
a(lp277
I108
atp278
s(I103
V0_8
p279
tp280
((lp281
I103
aI72
aI107
aI66
aI145
a(lp282
I148
atp283
s(I125
V6_46
p284
tp285
((lp286
I125
aI104
aI4
aI110
aI137
a(lp287
I161
atp288
s(I152
V1_12
p289
tp290
((lp291
I152
aI111
aI5
aI110
aI160
a(lp292
I112
atp293
s(I101
V8_54
p294
tp295
((lp296
I101
aI96
aI3
aI109
aI115
a(lp297
I120
atp298
s(I102
g260
tp299
((lp300
I102
aI1
aI3
aI112
aI146
a(lp301
I122
atp302
s(I186
g274
tp303
((lp304
I186
aI99
aI105
aI87
aI148
a(lp305
I105
atp306
s(I199
V8_52
p307
tp308
((lp309
I199
aI197
aI173
aI110
aI5
aI111
a(lp310
I78
atp311
s(I173
g143
tp312
((lp313
I173
aI110
aI5
aI111
aI161
a(lp314
I126
atp315
s(I188
V5_41
p316
tp317
((lp318
I188
aI109
aI3
aI112
aI169
aI192
a(lp319
I117
atp320
s(I191
V6_43
p321
tp322
((lp323
I191
aI106
aI185
a(lp324
I155
atp325
s(I174
V9_59
p326
tp327
((lp328
I174
aI108
aI67
aI130
a(lp329
I102
atp330
s(I152
V1_15
p331
tp332
((lp333
I152
aI111
aI5
aI108
aI122
a(lp334
I114
atp335
s(I107
g21
tp336
((lp337
I107
aI2
aI3
aI104
aI181
a(lp338
I132
atp339
s(I113
V4_28
p340
tp341
((lp342
I113
aI76
aI98
aI7
aI105
a(lp343
I97
atp344
s(I103
V0_3
p345
tp346
((lp347
I103
aI108
aI94
aI123
a(lp348
I149
atp349
s(I152
V1_11
p350
tp351
((lp352
I152
aI111
aI5
aI91
aI150
a(lp353
I111
atp354
s(I198
V7_50
p355
tp356
((lp357
I198
aI196
aI185
aI112
aI105
aI99
aI176
a(lp358
I135
atp359
s(I187
V5_36
p360
tp361
((lp362
I187
aI112
aI3
aI109
aI188
a(lp363
I93
atp364
s.