(dp0
I0
(lp1
sI1
(lp2
sI2
(lp3
sI3
(lp4
sI4
(lp5
sI5
(lp6
sI6
(lp7
sI7
(lp8
sI8
(lp9
sI9
(lp10
sI10
(lp11
sI11
(lp12
sI12
(lp13
sI13
(lp14
sI14
(lp15
sI15
(lp16
sI16
(lp17
sI17
(lp18
sI18
(lp19
sI19
(lp20
sI20
(lp21
sI21
(lp22
sI22
(lp23
sI23
(lp24
sI24
(lp25
sI25
(lp26
sI26
(lp27
sI27
(lp28
sI28
(lp29
sI29
(lp30
sI30
(lp31
sI31
(lp32
sI32
(lp33
sI33
(lp34
sI34
(lp35
sI35
(lp36
sI36
(lp37
sI37
(lp38
sI38
(lp39
sI39
(lp40
sI40
(lp41
sI41
(lp42
sI42
(lp43
sI43
(lp44
sI44
(lp45
sI45
(lp46
sI46
(lp47
sI47
(lp48
sI48
(lp49
sI49
(lp50
sI50
(lp51
sI51
(lp52
sI52
(lp53
sI53
(lp54
sI54
(lp55
sI55
(lp56
sI56
(lp57
sI57
(lp58
sI58
(lp59
sI59
(lp60
sI60
(lp61
sI61
(lp62
sI62
(lp63
sI63
(lp64
sI64
(lp65
sI65
(lp66
sI66
(lp67
sI67
(lp68
sI68
(lp69
sI69
(lp70
sI70
(lp71
sI71
(lp72
sI72
(lp73
sI73
(lp74
sI74
(lp75
sI75
(lp76
sI76
(lp77
sI77
(lp78
sI78
(lp79
sI79
(lp80
sI80
(lp81
sI81
(lp82
sI82
(lp83
sI83
(lp84
sI84
(lp85
sI85
(lp86
sI86
(lp87
sI87
(lp88
sI88
(lp89
sI89
(lp90
sI90
(lp91
sI91
(lp92
sI92
(lp93
sI93
(lp94
sI94
(lp95
sI95
(lp96
sI96
(lp97
sI97
(lp98
sI98
(lp99
sI99
(lp100
sI100
(lp101
sI101
(lp102
V8#8_53
p103
asI102
(lp104
V3#3_23
p105
asI103
(lp106
V0#0_1
p107
asI104
(lp108
V9#9_58
p109
asI105
(lp110
V4#4_28
p111
asI106
(lp112
V3#3_25
p113
asI107
(lp114
V2#2_19
p115
asI108
(lp116
V1#1_13
p117
asI109
(lp118
V4#4_29
p119
asI110
(lp120
V3#3_22
p121
asI111
(lp122
V8#8_52
p123
asI112
(lp124
V9#9_56
p125
asI113
(lp126
V4#4_27
p127
asI114
(lp128
V7#7_51
p129
asI115
(lp130
V8#8_54
p131
asI116
(lp132
V1#1_17
p133
asI117
(lp134
V6#6_49
p135
asI118
(lp136
V5#5_37
p137
asI119
(lp138
V2#2_21
p139
asI120
(lp140
sI121
(lp141
V4#4_35
p142
asI122
(lp143
V1#1_15
p144
asI123
(lp145
V0#0_5
p146
asI124
(lp147
V3#3_26
p148
asI125
(lp149
sI126
(lp150
V5#5_38
p151
asI127
(lp152
V6#6_47
p153
asI128
(lp154
V5#5_41
p155
asI129
(lp156
V4#4_32
p157
asI130
(lp158
V9#9_61
p159
asI131
(lp160
sI132
(lp161
V9#9_57
p162
asI133
(lp163
sI134
(lp164
V5#5_40
p165
asI135
(lp166
V0#0_7
p167
asI136
(lp168
V9#9_60
p169
asI137
(lp170
sI138
(lp171
V3#3_25
p172
asI139
(lp173
V4#4_33
p174
asI140
(lp175
sI141
(lp176
V0#0_6
p177
asI142
(lp178
V9#9_63
p179
asI143
(lp180
sI144
(lp181
sI145
(lp182
V0#0_8
p183
asI146
(lp184
V3#3_24
p185
asI147
(lp186
V6#6_45
p187
asI148
(lp188
V1#1_11
p189
asI149
(lp190
sI150
(lp191
V1#1_12
p192
asI151
(lp193
V0#0_4
p194
asI152
(lp195
V1#1_9
p196
asI153
(lp197
V1#1_18
p198
aV1#1_13
p199
aV1#1_12
p200
aV1#1_11
p201
aV1#1_10
p202
aV1#1_17
p203
aV1#1_16
p204
aV1#1_15
p205
aV1#1_14
p206
aV1#1_9
p207
aV0#0_8
p208
aV0#0_6
p209
aV0#0_7
p210
aV0#0_4
p211
aV0#0_5
p212
aV0#0_2
p213
aV0#0_3
p214
aV0#0_0
p215
aV0#0_1
p216
aV3#3_24
p217
aV3#3_25
p218
aV3#3_26
p219
aV3#3_22
p220
aV3#3_23
p221
aV2#2_19
p222
aV2#2_21
p223
aV2#2_20
p224
aV5#5_39
p225
aV5#5_38
p226
aV5#5_40
p227
aV5#5_41
p228
aV5#5_37
p229
aV5#5_36
p230
aV4#4_27
p231
aV4#4_29
p232
aV4#4_28
p233
aV4#4_32
p234
aV4#4_33
p235
aV4#4_30
p236
aV4#4_31
p237
aV4#4_34
p238
aV4#4_35
p239
aV7#7_51
p240
aV7#7_50
p241
aV6#6_49
p242
aV6#6_48
p243
aV6#6_45
p244
aV6#6_44
p245
aV6#6_47
p246
aV6#6_46
p247
aV6#6_43
p248
aV6#6_42
p249
aV9#9_59
p250
aV9#9_58
p251
aV9#9_57
p252
aV9#9_56
p253
aV9#9_55
p254
aV9#9_61
p255
aV9#9_62
p256
aV9#9_63
p257
aV9#9_60
p258
aV8#8_54
p259
aV8#8_52
p260
aV8#8_53
p261
asI154
(lp262
sI155
(lp263
sI156
(lp264
sI157
(lp265
V4#4_34
p266
asI158
(lp267
V1#1_16
p268
asI159
(lp269
sI160
(lp270
V1#1_18
p271
asI161
(lp272
V2#2_20
p273
asI162
(lp274
V9#9_59
p275
asI163
(lp276
V6#6_48
p277
asI164
(lp278
V3#3_23
p279
asI165
(lp280
V6#6_44
p281
asI166
(lp282
V3#3_26
p283
asI167
(lp284
V4#4_30
p285
asI168
(lp286
V9#9_62
p287
asI169
(lp288
V4#None
p289
aV0#None
p290
asI170
(lp291
V5#5_39
p292
asI171
(lp293
V2#2_20
p294
asI172
(lp295
V2#None
p296
asI173
(lp297
V2#2_19
p298
asI174
(lp299
V9#9_55
p300
asI175
(lp301
V0#0_3
p302
asI176
(lp303
V7#7_50
p304
asI177
(lp305
V0#0_2
p306
asI178
(lp307
V2#None
p308
asI179
(lp309
V2#2_19
p310
asI180
(lp311
V1#1_10
p312
asI181
(lp313
V2#2_21
p314
asI182
(lp315
sI183
(lp316
sI184
(lp317
sI185
(lp318
V6#6_43
p319
asI186
(lp320
V3#3_22
p321
asI187
(lp322
V5#None
p323
asI188
(lp324
V5#5_36
p325
asI189
(lp326
V4#4_31
p327
asI190
(lp328
V1#1_14
p329
asI191
(lp330
V6#6_42
p331
asI192
(lp332
V3#3_24
p333
asI193
(lp334
V0#0_0
p335
asI194
(lp336
V6#None
p337
aV3#None
p338
asI195
(lp339
V2#None
p340
asI196
(lp341
V3#None
p342
aV1#None
p343
asI197
(lp344
V9#None
p345
asI198
(lp346
V7#None
p347
asI199
(lp348
V8#None
p349
as.