(dp0
(I103
V0_6
p1
tp2
((lp3
I103
aI108
aI94
aI123
a(lp4
I148
atp5
s(I113
V4_29
p6
tp7
((lp8
I113
aI76
aI3
aI109
a(lp9
I98
atp10
s(I193
V0_4
p11
tp12
((lp13
I193
aI177
aI85
aI6
aI2
aI83
aI143
a(lp14
I138
atp15
s(I173
V2_21
p16
tp17
((lp18
I173
aI110
aI4
aI7
aI81
aI119
a(lp19
I127
atp20
s(I139
V4_34
p21
tp22
((lp23
I139
aI107
aI72
aI103
aI91
aI157
a(lp24
I153
atp25
s(I174
V9_58
p26
tp27
((lp28
I174
aI108
aI109
aI104
a(lp29
I101
atp30
s(I185
V6_49
p31
tp32
((lp33
I185
aI112
aI100
aI147
a(lp34
I157
atp35
s(I194
V3_22
p36
tp37
((lp38
I194
aI190
aI109
aI0
aI110
a(lp39
I91
atp40
s(I169
V0_0
p41
tp42
((lp43
I169
aI112
aI3
aI6
aI85
aI177
aI193
a(lp44
I90
atp45
s(I196
g36
tp46
((lp47
I196
aI185
aI112
aI100
aI186
a(lp48
I83
atp49
s(I186
V3_25
p50
tp51
((lp52
I186
aI99
aI15
aI106
a(lp53
I104
atp54
s(I152
V1_10
p55
tp56
((lp57
I152
aI111
aI5
aI108
aI67
aI130
a(lp58
I110
atp59
s(I164
V3_24
p60
tp61
((lp62
I164
aI102
aI1
aI3
aI112
aI146
a(lp63
I132
atp64
s(I102
g60
tp65
((lp66
I102
aI7
aI84
aI170
aI192
a(lp67
I121
atp68
s(I172
V2_19
p69
tp70
((lp71
I172
aI64
aI105
aI112
aI110
aI173
a(lp72
I96
atp73
s(I193
V0_1
p74
tp75
((lp76
I193
aI177
aI85
aI6
aI0
aI103
a(lp77
I136
atp78
s(I188
V5_38
p79
tp80
((lp81
I188
aI109
aI108
aI134
a(lp82
I119
atp83
s(I110
g50
tp84
((lp85
I110
aI112
aI80
aI138
a(lp86
I107
atp87
s(I197
V9_55
p88
tp89
((lp90
I197
aI173
aI110
aI5
aI108
aI174
a(lp91
I81
atp92
s(I195
g69
tp93
((lp94
I195
aI175
aI106
aI15
aI7
aI107
a(lp95
I95
atp96
s(I150
V1_14
p97
tp98
((lp99
I150
aI91
aI5
aI108
aI168
a(lp100
I143
atp101
s(I117
V6_46
p102
tp103
((lp104
I117
aI109
aI0
aI2
aI107
aI183
a(lp105
I160
atp106
s(I194
V6_42
p107
tp108
((lp109
I194
aI190
aI109
aI106
aI191
a(lp110
I150
atp111
s(I103
V0_5
p112
tp113
((lp114
I103
aI0
aI4
aI112
aI151
a(lp115
I147
atp116
s(I176
V7_51
p117
tp118
((lp119
I176
aI99
aI15
aI101
aI114
a(lp120
I154
atp121
s(I162
V9_60
p122
tp123
((lp124
I162
aI111
aI100
aI4
aI82
aI136
a(lp125
I128
atp126
s(I185
V6_47
p127
tp128
((lp129
I185
aI112
aI100
aI74
aI153
a(lp130
I47
atp131
s(I179
V2_20
p132
tp133
((lp134
I179
aI111
aI105
aI99
aI163
a(lp135
I134
atp136
s(I152
V1_18
p137
tp138
((lp139
I152
aI111
aI5
aI108
aI122
a(lp140
I115
atp141
s(I136
V9_62
p142
tp143
((lp144
I136
aI82
aI4
aI0
aI103
aI144
a(lp145
I151
atp146
s(I111
V8_53
p147
tp148
((lp149
I111
aI5
aI101
a(lp150
I99
atp151
s(I191
V6_44
p152
tp153
((lp154
I191
aI106
aI109
aI117
a(lp155
I156
atp156
s(I174
V9_56
p157
tp158
((lp159
I174
aI111
aI100
aI112
a(lp160
I100
atp161
s(I128
V5_40
p162
tp163
((lp164
I128
aI106
aI109
aI190
a(lp165
I140
atp166
s(I117
V6_48
p167
tp168
((lp169
I117
aI109
aI3
aI96
aI101
aI135
a(lp170
I159
atp171
s(I196
V1_9
p172
tp173
((lp174
I196
aI185
aI112
aI100
aI111
aI152
a(lp175
I89
atp176
s(I174
V9_61
p177
tp178
((lp179
I174
aI111
aI179
aI92
aI180
a(lp180
I103
atp181
s(I105
V4_30
p182
tp183
((lp184
I105
aI93
aI6
aI85
aI167
a(lp185
I125
atp186
s(I152
V1_13
p187
tp188
((lp189
I152
aI111
aI5
aI110
aI160
a(lp190
I113
atp191
s(I178
g69
tp192
((lp193
I178
aI107
aI2
aI92
aI179
a(lp194
I109
atp195
s(I193
V0_2
p196
tp197
((lp198
I193
aI177
a(lp199
I137
atp200
s(I150
V1_16
p201
tp202
((lp203
I150
aI91
aI6
aI15
aI59
aI158
a(lp204
I142
atp205
s(I169
V4_27
p206
tp207
((lp208
I169
aI112
aI3
aI76
aI113
a(lp209
I85
atp210
s(I188
V5_37
p211
tp212
((lp213
I188
aI109
aI106
aI128
a(lp214
I118
atp215
s(I112
V9_57
p216
tp217
((lp218
I112
aI4
aI97
aI132
a(lp219
I116
atp220
s(I179
g16
tp221
((lp222
I179
aI111
aI100
aI74
aI153
a(lp223
I21
atp224
s(I109
V4_31
p225
tp226
((lp227
I109
aI106
aI189
a(lp228
I124
atp229
s(I160
V1_17
p230
tp231
((lp232
I160
aI110
aI61
aI102
aI71
aI142
a(lp233
I144
atp234
s(I185
V6_45
p235
tp236
((lp237
I185
aI106
aI109
aI127
a(lp238
I158
atp239
s(I167
V4_33
p240
tp241
((lp242
I167
aI85
aI6
aI2
aI107
aI139
a(lp243
I139
atp244
s(I189
V4_32
p245
tp246
((lp247
I189
aI103
aI65
aI111
aI129
a(lp248
I131
atp249
s(I128
V5_39
p250
tp251
((lp252
I128
aI106
aI112
aI89
aI126
a(lp253
I141
atp254
s(I107
g132
tp255
((lp256
I107
aI171
a(lp257
I129
atp258
s(I109
V4_35
p259
tp260
((lp261
I109
aI3
aI1
aI102
aI121
a(lp262
I123
atp263
s(I110
V3_23
p264
tp265
((lp266
I110
aI61
aI102
a(lp267
I108
atp268
s(I103
V0_8
p269
tp270
((lp271
I103
aI189
aI106
aI175
a(lp272
I145
atp273
s(I152
V1_12
p274
tp275
((lp276
I152
aI111
aI5
aI91
aI150
a(lp277
I112
atp278
s(I136
V9_63
p279
tp280
((lp281
I136
aI82
aI4
aI67
aI108
aI140
a(lp282
I152
atp283
s(I101
V8_54
p284
tp285
((lp286
I101
aI96
aI3
aI109
aI115
a(lp287
I120
atp288
s(I102
V3_26
p289
tp290
((lp291
I102
aI124
a(lp292
I122
atp293
s(I103
V0_7
p294
tp295
((lp296
I103
aI0
aI110
aI141
a(lp297
I149
atp298
s(I186
g264
tp299
((lp300
I186
aI99
aI7
aI102
aI164
a(lp301
I105
atp302
s(I164
g289
tp303
((lp304
I164
aI102
aI7
aI105
aI166
a(lp305
I133
atp306
s(I199
V8_52
p307
tp308
((lp309
I199
aI197
aI173
aI110
aI5
aI111
a(lp310
I78
atp311
s(I173
g132
tp312
((lp313
I173
aI110
aI5
aI111
aI161
a(lp314
I126
atp315
s(I188
V5_41
p316
tp317
((lp318
I188
aI109
aI3
aI112
aI118
a(lp319
I117
atp320
s(I191
V6_43
p321
tp322
((lp323
I191
aI106
aI185
a(lp324
I155
atp325
s(I174
V9_59
p326
tp327
((lp328
I174
aI111
aI162
a(lp329
I102
atp330
s(I152
V1_15
p331
tp332
((lp333
I152
aI111
aI5
aI108
a(lp334
I114
atp335
s(I107
g16
tp336
((lp337
I107
aI2
aI3
aI104
aI181
a(lp338
I130
atp339
s(I113
V4_28
p340
tp341
((lp342
I113
aI76
aI98
aI7
aI105
a(lp343
I97
atp344
s(I103
V0_3
p345
tp346
((lp347
I103
aI72
aI107
aI66
aI145
a(lp348
I146
atp349
s(I152
V1_11
p350
tp351
((lp352
I152
aI111
aI105
aI87
aI148
a(lp353
I111
atp354
s(I198
V7_50
p355
tp356
((lp357
I198
aI196
aI185
aI112
aI105
aI99
aI176
a(lp358
I135
atp359
s(I187
V5_36
p360
tp361
((lp362
I187
aI112
aI3
aI109
aI188
a(lp363
I93
atp364
s.